---
triple:          'arm64-apple-darwin'
binary-path:     '/Users/liuxiaoshi/Documents/HPI/SS24/CP/source/casting'
relocations:
  - { offsetInCU: 0x4BD9, offset: 0x4BD9, size: 0x8, addend: 0x0, symName: __ZNSt3__124__put_character_sequenceB8ue170006IcNS_11char_traitsIcEEEERNS_13basic_ostreamIT_T0_EES7_PKS4_m, symObjAddr: 0x2A8C, symBinAddr: 0x100003748, symSize: 0x1F4 }
  - { offsetInCU: 0x5C51, offset: 0x5C51, size: 0x8, addend: 0x0, symName: __ZNSt3__111__sift_downB8ue170006INS_17_ClassicAlgPolicyERNS_7greaterIiEENS_11__wrap_iterIPiEEEEvT1_OT0_NS_15iterator_traitsIS8_E15difference_typeES8_, symObjAddr: 0x445C, symBinAddr: 0x100005118, symSize: 0x2DC }
  - { offsetInCU: 0x5D30, offset: 0x5D30, size: 0x8, addend: 0x0, symName: __ZNSt3__117__floyd_sift_downB8ue170006INS_17_ClassicAlgPolicyERNS_7greaterIiEENS_11__wrap_iterIPiEEEET1_S8_OT0_NS_15iterator_traitsIS8_E15difference_typeE, symObjAddr: 0x4A3C, symBinAddr: 0x1000056F8, symSize: 0x14C }
  - { offsetInCU: 0x7AEF, offset: 0x7AEF, size: 0x8, addend: 0x0, symName: __ZNSt3__1lsB8ue170006INS_11char_traitsIcEEEERNS_13basic_ostreamIcT_EES6_PKc, symObjAddr: 0x484, symBinAddr: 0x100001140, symSize: 0x48 }
  - { offsetInCU: 0x7B35, offset: 0x7B35, size: 0x8, addend: 0x0, symName: __ZNSt3__14endlB8ue170006IcNS_11char_traitsIcEEEERNS_13basic_ostreamIT_T0_EES7_, symObjAddr: 0x4F8, symBinAddr: 0x1000011B4, symSize: 0x58 }
  - { offsetInCU: 0x7DA1, offset: 0x7DA1, size: 0x8, addend: 0x0, symName: __ZNSt3__1neB8ue170006IPcEEbRKNS_11__wrap_iterIT_EES6_, symObjAddr: 0x750, symBinAddr: 0x10000140C, symSize: 0x34 }
  - { offsetInCU: 0x7DE4, offset: 0x7DE4, size: 0x8, addend: 0x0, symName: __ZNSt3__1lsB8ue170006INS_11char_traitsIcEEEERNS_13basic_ostreamIcT_EES6_c, symObjAddr: 0x79C, symBinAddr: 0x100001458, symSize: 0x34 }
  - { offsetInCU: 0x7E2A, offset: 0x7E2A, size: 0x8, addend: 0x0, symName: __ZNSt3__1rsB8ue170006IcNS_11char_traitsIcEEEERNS_13basic_istreamIT_T0_EES7_RS4_, symObjAddr: 0xA5C, symBinAddr: 0x100001718, symSize: 0x190 }
  - { offsetInCU: 0x7EAC, offset: 0x7EAC, size: 0x8, addend: 0x0, symName: __ZNSt3__112__to_addressB8ue170006IiEEPT_S2_, symObjAddr: 0x1128, symBinAddr: 0x100001DE4, symSize: 0x14 }
  - { offsetInCU: 0x7EE1, offset: 0x7EE1, size: 0x8, addend: 0x0, symName: __ZNSt3__130__libcpp_is_constant_evaluatedB8ue170006Ev, symObjAddr: 0x1208, symBinAddr: 0x100001EC4, symSize: 0xC }
  - { offsetInCU: 0x7EFE, offset: 0x7EFE, size: 0x8, addend: 0x0, symName: __ZNSt3__119__libcpp_deallocateB8ue170006EPvmm, symObjAddr: 0x1214, symBinAddr: 0x100001ED0, symSize: 0x30 }
  - { offsetInCU: 0x7F46, offset: 0x7F46, size: 0x8, addend: 0x0, symName: __ZNSt3__127__do_deallocate_handle_sizeB8ue170006IJEEEvPvmDpT_, symObjAddr: 0x1244, symBinAddr: 0x100001F00, symSize: 0x28 }
  - { offsetInCU: 0x7F84, offset: 0x7F84, size: 0x8, addend: 0x0, symName: __ZNSt3__124__libcpp_operator_deleteB8ue170006IJPvEEEvDpT_, symObjAddr: 0x126C, symBinAddr: 0x100001F28, symSize: 0x24 }
  - { offsetInCU: 0x7FB9, offset: 0x7FB9, size: 0x8, addend: 0x0, symName: __ZNSt3__13maxB8ue170006ImEERKT_S3_S3_, symObjAddr: 0x18EC, symBinAddr: 0x1000025A8, symSize: 0x2C }
  - { offsetInCU: 0x7FFC, offset: 0x7FFC, size: 0x8, addend: 0x0, symName: __ZNSt3__13minB8ue170006ImEERKT_S3_S3_, symObjAddr: 0x1918, symBinAddr: 0x1000025D4, symSize: 0x2C }
  - { offsetInCU: 0x8240, offset: 0x8240, size: 0x8, addend: 0x0, symName: __ZNSt3__13minB8ue170006ImNS_6__lessIvvEEEERKT_S5_S5_T0_, symObjAddr: 0x19A4, symBinAddr: 0x100002660, symSize: 0x54 }
  - { offsetInCU: 0x82DF, offset: 0x82DF, size: 0x8, addend: 0x0, symName: __ZNSt3__120__throw_length_errorB8ue170006EPKc, symObjAddr: 0x1A80, symBinAddr: 0x10000273C, symSize: 0x64 }
  - { offsetInCU: 0x8309, offset: 0x8309, size: 0x8, addend: 0x0, symName: __ZNSt3__13maxB8ue170006ImNS_6__lessIvvEEEERKT_S5_S5_T0_, symObjAddr: 0x1B64, symBinAddr: 0x100002820, symSize: 0x54 }
  - { offsetInCU: 0x8363, offset: 0x8363, size: 0x8, addend: 0x0, symName: __ZNSt3__119__allocate_at_leastB8ue170006INS_9allocatorIiEEEENS_19__allocation_resultINS_16allocator_traitsIT_E7pointerEEERS5_m, symObjAddr: 0x1CC8, symBinAddr: 0x100002984, symSize: 0x40 }
  - { offsetInCU: 0x83A6, offset: 0x83A6, size: 0x8, addend: 0x0, symName: __ZNSt3__117__libcpp_allocateB8ue170006Emm, symObjAddr: 0x1E78, symBinAddr: 0x100002B34, symSize: 0x28 }
  - { offsetInCU: 0x83E3, offset: 0x83E3, size: 0x8, addend: 0x0, symName: __ZNSt3__121__libcpp_operator_newB8ue170006IJmEEEPvDpT_, symObjAddr: 0x1EA0, symBinAddr: 0x100002B5C, symSize: 0x24 }
  - { offsetInCU: 0x841C, offset: 0x841C, size: 0x8, addend: 0x0, symName: __ZNSt3__142__uninitialized_allocator_move_if_noexceptB8ue170006INS_9allocatorIiEENS_16reverse_iteratorIPiEES5_ivEET1_RT_T0_S9_S6_, symObjAddr: 0x1F28, symBinAddr: 0x100002BE4, symSize: 0xE8 }
  - { offsetInCU: 0x8499, offset: 0x8499, size: 0x8, addend: 0x0, symName: __ZNSt3__14swapB8ue170006IPiEEvRT_S3_, symObjAddr: 0x205C, symBinAddr: 0x100002D18, symSize: 0x3C }
  - { offsetInCU: 0x84EA, offset: 0x84EA, size: 0x8, addend: 0x0, symName: __ZNSt3__1neB8ue170006IPiS1_EEbRKNS_16reverse_iteratorIT_EERKNS2_IT0_EE, symObjAddr: 0x2144, symBinAddr: 0x100002E00, symSize: 0x48 }
  - { offsetInCU: 0x855B, offset: 0x855B, size: 0x8, addend: 0x0, symName: __ZNSt3__114__construct_atB8ue170006IiJiEPiEEPT_S3_DpOT0_, symObjAddr: 0x218C, symBinAddr: 0x100002E48, symSize: 0x2C }
  - { offsetInCU: 0x85CB, offset: 0x85CB, size: 0x8, addend: 0x0, symName: __ZNSt3__112__to_addressB8ue170006INS_16reverse_iteratorIPiEEvEEu7__decayIDTclsr19__to_address_helperIT_EE6__callclsr3stdE7declvalIRKS4_EEEEES6_, symObjAddr: 0x21B8, symBinAddr: 0x100002E74, symSize: 0x24 }
  - { offsetInCU: 0x8601, offset: 0x8601, size: 0x8, addend: 0x0, symName: __ZNSt3__14moveB8ue170006INS_16reverse_iteratorIPiEES3_EET0_T_S5_S4_, symObjAddr: 0x2224, symBinAddr: 0x100002EE0, symSize: 0x78 }
  - { offsetInCU: 0x8684, offset: 0x8684, size: 0x8, addend: 0x0, symName: __ZNSt3__16__moveB8ue170006INS_17_ClassicAlgPolicyENS_16reverse_iteratorIPiEES4_S4_EENS_4pairIT0_T2_EES6_T1_S7_, symObjAddr: 0x230C, symBinAddr: 0x100002FC8, symSize: 0x64 }
  - { offsetInCU: 0x86F0, offset: 0x86F0, size: 0x8, addend: 0x0, symName: __ZNSt3__123__dispatch_copy_or_moveB8ue170006INS_17_ClassicAlgPolicyENS_11__move_loopIS1_EENS_14__move_trivialENS_16reverse_iteratorIPiEES7_S7_EENS_4pairIT2_T4_EES9_T3_SA_, symObjAddr: 0x2370, symBinAddr: 0x10000302C, symSize: 0x64 }
  - { offsetInCU: 0x876E, offset: 0x876E, size: 0x8, addend: 0x0, symName: __ZNSt3__121__unwrap_and_dispatchB8ue170006INS_10__overloadINS_11__move_loopINS_17_ClassicAlgPolicyEEENS_14__move_trivialEEENS_16reverse_iteratorIPiEES9_S9_Li0EEENS_4pairIT0_T2_EESB_T1_SC_, symObjAddr: 0x23D4, symBinAddr: 0x100003090, symSize: 0x12C }
  - { offsetInCU: 0x87FE, offset: 0x87FE, size: 0x8, addend: 0x0, symName: __ZNSt3__114__unwrap_rangeB8ue170006INS_16reverse_iteratorIPiEES3_EENS_4pairIT0_S5_EET_S7_, symObjAddr: 0x2500, symBinAddr: 0x1000031BC, symSize: 0x84 }
  - { offsetInCU: 0x8952, offset: 0x8952, size: 0x8, addend: 0x0, symName: __ZNSt3__113__unwrap_iterB8ue170006INS_16reverse_iteratorIPiEENS_18__unwrap_iter_implIS3_Lb0EEELi0EEEDTclsrT0_8__unwrapclsr3stdE7declvalIT_EEEES7_, symObjAddr: 0x2624, symBinAddr: 0x1000032E0, symSize: 0x44 }
  - { offsetInCU: 0x8996, offset: 0x8996, size: 0x8, addend: 0x0, symName: __ZNSt3__19make_pairB8ue170006INS_16reverse_iteratorIPiEES3_EENS_4pairINS_18__unwrap_ref_decayIT_E4typeENS5_IT0_E4typeEEEOS6_OS9_, symObjAddr: 0x2668, symBinAddr: 0x100003324, symSize: 0x38 }
  - { offsetInCU: 0x89E5, offset: 0x89E5, size: 0x8, addend: 0x0, symName: __ZNSt3__114__rewrap_rangeB8ue170006INS_16reverse_iteratorIPiEES3_EET_S4_T0_, symObjAddr: 0x26A0, symBinAddr: 0x10000335C, symSize: 0x5C }
  - { offsetInCU: 0x8A31, offset: 0x8A31, size: 0x8, addend: 0x0, symName: __ZNSt3__113__rewrap_iterB8ue170006INS_16reverse_iteratorIPiEES3_NS_18__unwrap_iter_implIS3_Lb0EEEEET_S6_T0_, symObjAddr: 0x26FC, symBinAddr: 0x1000033B8, symSize: 0x88 }
  - { offsetInCU: 0x8B6B, offset: 0x8B6B, size: 0x8, addend: 0x0, symName: __ZNSt3__116__pad_and_outputB8ue170006IcNS_11char_traitsIcEEEENS_19ostreambuf_iteratorIT_T0_EES6_PKS4_S8_S8_RNS_8ios_baseES4_, symObjAddr: 0x2CE4, symBinAddr: 0x1000039A0, symSize: 0x248 }
  - { offsetInCU: 0x8C3A, offset: 0x8C3A, size: 0x8, addend: 0x0, symName: __ZNSt3__112__to_addressB8ue170006IKcEEPT_S3_, symObjAddr: 0x3254, symBinAddr: 0x100003F10, symSize: 0x14 }
  - { offsetInCU: 0x8CA2, offset: 0x8CA2, size: 0x8, addend: 0x0, symName: __ZNSt3__19use_facetB8ue170006INS_5ctypeIcEEEERKT_RKNS_6localeE, symObjAddr: 0x352C, symBinAddr: 0x1000041E8, symSize: 0x2C }
  - { offsetInCU: 0x916F, offset: 0x916F, size: 0x8, addend: 0x0, symName: __ZNSt3__118__constexpr_strlenB8ue170006EPKc, symObjAddr: 0x35C4, symBinAddr: 0x100004280, symSize: 0x24 }
  - { offsetInCU: 0x919B, offset: 0x919B, size: 0x8, addend: 0x0, symName: __ZNSt3__19make_heapB8ue170006INS_11__wrap_iterIPiEENS_7greaterIiEEEEvT_S6_T0_, symObjAddr: 0x3750, symBinAddr: 0x10000440C, symSize: 0x40 }
  - { offsetInCU: 0x91F1, offset: 0x91F1, size: 0x8, addend: 0x0, symName: __ZNSt3__18distanceB8ue170006INS_11__wrap_iterIPiEEEENS_15iterator_traitsIT_E15difference_typeES5_S5_, symObjAddr: 0x3824, symBinAddr: 0x1000044E0, symSize: 0x3C }
  - { offsetInCU: 0x9234, offset: 0x9234, size: 0x8, addend: 0x0, symName: __ZNSt3__110__distanceB8ue170006INS_11__wrap_iterIPiEEEENS_15iterator_traitsIT_E15difference_typeES5_S5_NS_26random_access_iterator_tagE, symObjAddr: 0x3930, symBinAddr: 0x1000045EC, symSize: 0x30 }
  - { offsetInCU: 0x9281, offset: 0x9281, size: 0x8, addend: 0x0, symName: __ZNSt3__1miB8ue170006IPiS1_EENS_11__wrap_iterIT_E15difference_typeERKS4_RKNS2_IT0_EE, symObjAddr: 0x3960, symBinAddr: 0x10000461C, symSize: 0x48 }
  - { offsetInCU: 0x92CD, offset: 0x92CD, size: 0x8, addend: 0x0, symName: __ZNSt3__122__make_exception_guardB8ue170006INS_6vectorIiNS_9allocatorIiEEE16__destroy_vectorEEENS_28__exception_guard_exceptionsIT_EES7_, symObjAddr: 0x39C0, symBinAddr: 0x10000467C, symSize: 0x40 }
  - { offsetInCU: 0x9302, offset: 0x9302, size: 0x8, addend: 0x0, symName: __ZNSt3__130__uninitialized_allocator_copyB8ue170006INS_9allocatorIiEENS_11__wrap_iterIPiEES5_S4_EET2_RT_T0_T1_S6_, symObjAddr: 0x3BF0, symBinAddr: 0x1000048AC, symSize: 0x90 }
  - { offsetInCU: 0x939F, offset: 0x939F, size: 0x8, addend: 0x0, symName: __ZNSt3__114__unwrap_rangeB8ue170006INS_11__wrap_iterIPiEES2_EENS_4pairIT0_S5_EET_S7_, symObjAddr: 0x3C80, symBinAddr: 0x10000493C, symSize: 0x70 }
  - { offsetInCU: 0x93EB, offset: 0x93EB, size: 0x8, addend: 0x0, symName: __ZNSt3__135__uninitialized_allocator_copy_implB8ue170006INS_9allocatorIiEEPiS3_S3_EET2_RT_T0_T1_S4_, symObjAddr: 0x3CF0, symBinAddr: 0x1000049AC, symSize: 0xFC }
  - { offsetInCU: 0x9489, offset: 0x9489, size: 0x8, addend: 0x0, symName: __ZNSt3__113__unwrap_iterB8ue170006IPiNS_18__unwrap_iter_implIS1_Lb1EEELi0EEEDTclsrT0_8__unwrapclsr3stdE7declvalIT_EEEES5_, symObjAddr: 0x3DEC, symBinAddr: 0x100004AA8, symSize: 0x24 }
  - { offsetInCU: 0x94CD, offset: 0x94CD, size: 0x8, addend: 0x0, symName: __ZNSt3__113__rewrap_iterB8ue170006IPiS1_NS_18__unwrap_iter_implIS1_Lb1EEEEET_S4_T0_, symObjAddr: 0x3E10, symBinAddr: 0x100004ACC, symSize: 0x50 }
  - { offsetInCU: 0x9522, offset: 0x9522, size: 0x8, addend: 0x0, symName: __ZNSt3__19make_pairB8ue170006IPiS1_EENS_4pairINS_18__unwrap_ref_decayIT_E4typeENS3_IT0_E4typeEEEOS4_OS7_, symObjAddr: 0x3E60, symBinAddr: 0x100004B1C, symSize: 0x38 }
  - { offsetInCU: 0x9571, offset: 0x9571, size: 0x8, addend: 0x0, symName: __ZNSt3__113__unwrap_iterB8ue170006INS_11__wrap_iterIPiEENS_18__unwrap_iter_implIS3_Lb1EEELi0EEEDTclsrT0_8__unwrapclsr3stdE7declvalIT_EEEES7_, symObjAddr: 0x3E98, symBinAddr: 0x100004B54, symSize: 0x2C }
  - { offsetInCU: 0x96B5, offset: 0x96B5, size: 0x8, addend: 0x0, symName: __ZNSt3__112__to_addressB8ue170006INS_11__wrap_iterIPiEEvEEu7__decayIDTclsr19__to_address_helperIT_EE6__callclsr3stdE7declvalIRKS4_EEEEES6_, symObjAddr: 0x3F5C, symBinAddr: 0x100004C18, symSize: 0x24 }
  - { offsetInCU: 0x9790, offset: 0x9790, size: 0x8, addend: 0x0, symName: __ZNSt3__122__make_exception_guardB8ue170006INS_29_AllocatorDestroyRangeReverseINS_9allocatorIiEEPiEEEENS_28__exception_guard_exceptionsIT_EES7_, symObjAddr: 0x3FDC, symBinAddr: 0x100004C98, symSize: 0x4C }
  - { offsetInCU: 0x97C6, offset: 0x97C6, size: 0x8, addend: 0x0, symName: __ZNSt3__119__allocator_destroyB8ue170006INS_9allocatorIiEENS_16reverse_iteratorIPiEES5_EEvRT_T0_T1_, symObjAddr: 0x425C, symBinAddr: 0x100004F18, symSize: 0x70 }
  - { offsetInCU: 0x987C, offset: 0x987C, size: 0x8, addend: 0x0, symName: __ZNSt3__111__make_heapB8ue170006INS_17_ClassicAlgPolicyERNS_7greaterIiEENS_11__wrap_iterIPiEEEEvT1_S8_OT0_, symObjAddr: 0x4388, symBinAddr: 0x100005044, symSize: 0xD4 }
  - { offsetInCU: 0x991E, offset: 0x991E, size: 0x8, addend: 0x0, symName: __ZNSt3__18pop_heapB8ue170006INS_11__wrap_iterIPiEENS_7greaterIiEEEEvT_S6_T0_, symObjAddr: 0x4874, symBinAddr: 0x100005530, symSize: 0x58 }
  - { offsetInCU: 0x9982, offset: 0x9982, size: 0x8, addend: 0x0, symName: __ZNSt3__110__pop_heapB8ue170006INS_17_ClassicAlgPolicyENS_7greaterIiEENS_11__wrap_iterIPiEEEEvT1_S7_RT0_NS_15iterator_traitsIS7_E15difference_typeE, symObjAddr: 0x48F8, symBinAddr: 0x1000055B4, symSize: 0x144 }
  - { offsetInCU: 0x9A32, offset: 0x9A32, size: 0x8, addend: 0x0, symName: __ZNSt3__1eqB8ue170006IPiEEbRKNS_11__wrap_iterIT_EES6_, symObjAddr: 0x4BA8, symBinAddr: 0x100005864, symSize: 0x48 }
  - { offsetInCU: 0x9A75, offset: 0x9A75, size: 0x8, addend: 0x0, symName: __ZNSt3__19__sift_upB8ue170006INS_17_ClassicAlgPolicyERNS_7greaterIiEENS_11__wrap_iterIPiEEEEvT1_S8_OT0_NS_15iterator_traitsIS8_E15difference_typeE, symObjAddr: 0x4BF0, symBinAddr: 0x1000058AC, symSize: 0x168 }
  - { offsetInCU: 0x9B25, offset: 0x9B25, size: 0x8, addend: 0x0, symName: __ZNSt3__1eqB8ue170006IPcEEbRKNS_11__wrap_iterIT_EES6_, symObjAddr: 0x4EDC, symBinAddr: 0x100005B98, symSize: 0x48 }
  - { offsetInCU: 0x9B68, offset: 0x9B68, size: 0x8, addend: 0x0, symName: __ZNSt3__122__make_exception_guardB8ue170006INS_6vectorIcNS_9allocatorIcEEE16__destroy_vectorEEENS_28__exception_guard_exceptionsIT_EES7_, symObjAddr: 0x505C, symBinAddr: 0x100005D18, symSize: 0x40 }
  - { offsetInCU: 0x9B9D, offset: 0x9B9D, size: 0x8, addend: 0x0, symName: __ZNSt3__119__allocate_at_leastB8ue170006INS_9allocatorIcEEEENS_19__allocation_resultINS_16allocator_traitsIT_E7pointerEEERS5_m, symObjAddr: 0x5400, symBinAddr: 0x1000060BC, symSize: 0x40 }
  - { offsetInCU: 0x9BE0, offset: 0x9BE0, size: 0x8, addend: 0x0, symName: __ZNSt3__112__to_addressB8ue170006IcEEPT_S2_, symObjAddr: 0x5748, symBinAddr: 0x100006404, symSize: 0x14 }
  - { offsetInCU: 0xA1A0, offset: 0xA1A0, size: 0x8, addend: 0x0, symName: __ZNSt3__130__uninitialized_allocator_copyB8ue170006INS_9allocatorIcEEPcS3_S3_EET2_RT_T0_T1_S4_, symObjAddr: 0x606C, symBinAddr: 0x100006D28, symSize: 0x80 }
  - { offsetInCU: 0xA23D, offset: 0xA23D, size: 0x8, addend: 0x0, symName: __ZNSt3__114__unwrap_rangeB8ue170006IPcS1_EENS_4pairIT0_S3_EET_S5_, symObjAddr: 0x60EC, symBinAddr: 0x100006DA8, symSize: 0x60 }
  - { offsetInCU: 0xA289, offset: 0xA289, size: 0x8, addend: 0x0, symName: __ZNSt3__135__uninitialized_allocator_copy_implB8ue170006INS_9allocatorIcEEPcS3_S3_EET2_RT_T0_T1_S4_, symObjAddr: 0x614C, symBinAddr: 0x100006E08, symSize: 0xFC }
  - { offsetInCU: 0xA327, offset: 0xA327, size: 0x8, addend: 0x0, symName: __ZNSt3__113__unwrap_iterB8ue170006IPcNS_18__unwrap_iter_implIS1_Lb1EEELi0EEEDTclsrT0_8__unwrapclsr3stdE7declvalIT_EEEES5_, symObjAddr: 0x6248, symBinAddr: 0x100006F04, symSize: 0x24 }
  - { offsetInCU: 0xA36B, offset: 0xA36B, size: 0x8, addend: 0x0, symName: __ZNSt3__113__rewrap_iterB8ue170006IPcS1_NS_18__unwrap_iter_implIS1_Lb1EEEEET_S4_T0_, symObjAddr: 0x626C, symBinAddr: 0x100006F28, symSize: 0x50 }
  - { offsetInCU: 0xA3C0, offset: 0xA3C0, size: 0x8, addend: 0x0, symName: __ZNSt3__19make_pairB8ue170006IPcS1_EENS_4pairINS_18__unwrap_ref_decayIT_E4typeENS3_IT0_E4typeEEEOS4_OS7_, symObjAddr: 0x62BC, symBinAddr: 0x100006F78, symSize: 0x38 }
  - { offsetInCU: 0xA4BC, offset: 0xA4BC, size: 0x8, addend: 0x0, symName: __ZNSt3__122__make_exception_guardB8ue170006INS_29_AllocatorDestroyRangeReverseINS_9allocatorIcEEPcEEEENS_28__exception_guard_exceptionsIT_EES7_, symObjAddr: 0x6364, symBinAddr: 0x100007020, symSize: 0x4C }
  - { offsetInCU: 0xA4F2, offset: 0xA4F2, size: 0x8, addend: 0x0, symName: __ZNSt3__119__allocator_destroyB8ue170006INS_9allocatorIcEENS_16reverse_iteratorIPcEES5_EEvRT_T0_T1_, symObjAddr: 0x65E4, symBinAddr: 0x1000072A0, symSize: 0x70 }
  - { offsetInCU: 0xA555, offset: 0xA555, size: 0x8, addend: 0x0, symName: __ZNSt3__1neB8ue170006IPcS1_EEbRKNS_16reverse_iteratorIT_EERKNS2_IT0_EE, symObjAddr: 0x6688, symBinAddr: 0x100007344, symSize: 0x48 }
  - { offsetInCU: 0xA5A1, offset: 0xA5A1, size: 0x8, addend: 0x0, symName: __ZNSt3__112__to_addressB8ue170006INS_16reverse_iteratorIPcEEvEEu7__decayIDTclsr19__to_address_helperIT_EE6__callclsr3stdE7declvalIRKS4_EEEEES6_, symObjAddr: 0x66D0, symBinAddr: 0x10000738C, symSize: 0x24 }
  - { offsetInCU: 0xA87D, offset: 0xA87D, size: 0x8, addend: 0x0, symName: __ZSt28__throw_bad_array_new_lengthB8ue170006v, symObjAddr: 0x1E44, symBinAddr: 0x100002B00, symSize: 0x34 }
  - { offsetInCU: 0xAD29, offset: 0xAD29, size: 0x8, addend: 0x0, symName: __ZNSt3__16vectorIiNS_9allocatorIiEEE26__swap_out_circular_bufferERNS_14__split_bufferIiRS2_EE, symObjAddr: 0x1720, symBinAddr: 0x1000023DC, symSize: 0x110 }
  - { offsetInCU: 0xD2ED, offset: 0xD2ED, size: 0x8, addend: 0x0, symName: __Z12transmutatioiNSt3__16vectorIcNS_9allocatorIcEEEE, symObjAddr: 0x0, symBinAddr: 0x100000CBC, symSize: 0x3C8 }
  - { offsetInCU: 0xD3F3, offset: 0xD3F3, size: 0x8, addend: 0x0, symName: __ZNSt3__16vectorIiNS_9allocatorIiEEEC1B8ue170006Ev, symObjAddr: 0x3C8, symBinAddr: 0x100001084, symSize: 0x2C }
  - { offsetInCU: 0xD41C, offset: 0xD41C, size: 0x8, addend: 0x0, symName: __ZNSt3__16vectorIcNS_9allocatorIcEEEixB8ue170006Em, symObjAddr: 0x3F4, symBinAddr: 0x1000010B0, symSize: 0x24 }
  - { offsetInCU: 0xD452, offset: 0xD452, size: 0x8, addend: 0x0, symName: __ZNSt3__16vectorIiNS_9allocatorIiEEE9push_backB8ue170006EOi, symObjAddr: 0x418, symBinAddr: 0x1000010D4, symSize: 0x6C }
  - { offsetInCU: 0xD487, offset: 0xD487, size: 0x8, addend: 0x0, symName: __ZNSt3__113basic_ostreamIcNS_11char_traitsIcEEElsB8ue170006EPFRS3_S4_E, symObjAddr: 0x4CC, symBinAddr: 0x100001188, symSize: 0x2C }
  - { offsetInCU: 0xD4BA, offset: 0xD4BA, size: 0x8, addend: 0x0, symName: __ZNKSt3__16vectorIiNS_9allocatorIiEEE4sizeB8ue170006Ev, symObjAddr: 0x550, symBinAddr: 0x10000120C, symSize: 0x28 }
  - { offsetInCU: 0xD4DF, offset: 0xD4DF, size: 0x8, addend: 0x0, symName: __ZNSt3__16vectorIiNS_9allocatorIiEEE5beginB8ue170006Ev, symObjAddr: 0x578, symBinAddr: 0x100001234, symSize: 0x30 }
  - { offsetInCU: 0xD505, offset: 0xD505, size: 0x8, addend: 0x0, symName: __ZNSt3__16vectorIiNS_9allocatorIiEEE3endB8ue170006Ev, symObjAddr: 0x5A8, symBinAddr: 0x100001264, symSize: 0x30 }
  - { offsetInCU: 0xD56C, offset: 0xD56C, size: 0x8, addend: 0x0, symName: __ZNSt3__114priority_queueIiNS_6vectorIiNS_9allocatorIiEEEENS_7greaterIiEEEC1INS_11__wrap_iterIPiEEvEET_SC_RKS6_, symObjAddr: 0x5D8, symBinAddr: 0x100001294, symSize: 0x44 }
  - { offsetInCU: 0xD5CE, offset: 0xD5CE, size: 0x8, addend: 0x0, symName: __ZNKSt3__114priority_queueIiNS_6vectorIiNS_9allocatorIiEEEENS_7greaterIiEEE5emptyB8ue170006Ev, symObjAddr: 0x61C, symBinAddr: 0x1000012D8, symSize: 0x28 }
  - { offsetInCU: 0xD5F3, offset: 0xD5F3, size: 0x8, addend: 0x0, symName: __ZNKSt3__114priority_queueIiNS_6vectorIiNS_9allocatorIiEEEENS_7greaterIiEEE3topB8ue170006Ev, symObjAddr: 0x644, symBinAddr: 0x100001300, symSize: 0x24 }
  - { offsetInCU: 0xD618, offset: 0xD618, size: 0x8, addend: 0x0, symName: __ZNSt3__114priority_queueIiNS_6vectorIiNS_9allocatorIiEEEENS_7greaterIiEEE3popEv, symObjAddr: 0x668, symBinAddr: 0x100001324, symSize: 0x50 }
  - { offsetInCU: 0xD63E, offset: 0xD63E, size: 0x8, addend: 0x0, symName: __ZNSt3__114priority_queueIiNS_6vectorIiNS_9allocatorIiEEEENS_7greaterIiEEED1Ev, symObjAddr: 0x6B8, symBinAddr: 0x100001374, symSize: 0x2C }
  - { offsetInCU: 0xD66A, offset: 0xD66A, size: 0x8, addend: 0x0, symName: __ZNSt3__16vectorIcNS_9allocatorIcEEE5beginB8ue170006Ev, symObjAddr: 0x6F0, symBinAddr: 0x1000013AC, symSize: 0x30 }
  - { offsetInCU: 0xD690, offset: 0xD690, size: 0x8, addend: 0x0, symName: __ZNSt3__16vectorIcNS_9allocatorIcEEE3endB8ue170006Ev, symObjAddr: 0x720, symBinAddr: 0x1000013DC, symSize: 0x30 }
  - { offsetInCU: 0xD6B6, offset: 0xD6B6, size: 0x8, addend: 0x0, symName: __ZNKSt3__111__wrap_iterIPcEdeB8ue170006Ev, symObjAddr: 0x784, symBinAddr: 0x100001440, symSize: 0x18 }
  - { offsetInCU: 0xD6DB, offset: 0xD6DB, size: 0x8, addend: 0x0, symName: __ZNSt3__111__wrap_iterIPcEppB8ue170006Ev, symObjAddr: 0x7D0, symBinAddr: 0x10000148C, symSize: 0x20 }
  - { offsetInCU: 0xD700, offset: 0xD700, size: 0x8, addend: 0x0, symName: __ZNSt3__16vectorIiNS_9allocatorIiEEED1B8ue170006Ev, symObjAddr: 0x7F0, symBinAddr: 0x1000014AC, symSize: 0x2C }
  - { offsetInCU: 0xD729, offset: 0xD729, size: 0x8, addend: 0x0, symName: _main, symObjAddr: 0x81C, symBinAddr: 0x1000014D8, symSize: 0x1AC }
  - { offsetInCU: 0xD7BF, offset: 0xD7BF, size: 0x8, addend: 0x0, symName: __ZNSt3__19basic_iosIcNS_11char_traitsIcEEE3tieB8ue170006EPNS_13basic_ostreamIcS2_EE, symObjAddr: 0x9C8, symBinAddr: 0x100001684, symSize: 0x2C }
  - { offsetInCU: 0xD804, offset: 0xD804, size: 0x8, addend: 0x0, symName: __ZNSt3__18ios_base9precisionB8ue170006El, symObjAddr: 0x9F4, symBinAddr: 0x1000016B0, symSize: 0x2C }
  - { offsetInCU: 0xD849, offset: 0xD849, size: 0x8, addend: 0x0, symName: __ZNSt3__16vectorIcNS_9allocatorIcEEEC1EmRKc, symObjAddr: 0xA20, symBinAddr: 0x1000016DC, symSize: 0x3C }
  - { offsetInCU: 0xD892, offset: 0xD892, size: 0x8, addend: 0x0, symName: __ZNSt3__16vectorIcNS_9allocatorIcEEEC1ERKS3_, symObjAddr: 0xBEC, symBinAddr: 0x1000018A8, symSize: 0x34 }
  - { offsetInCU: 0xD8CC, offset: 0xD8CC, size: 0x8, addend: 0x0, symName: __ZNSt3__16vectorIcNS_9allocatorIcEEED1B8ue170006Ev, symObjAddr: 0xC20, symBinAddr: 0x1000018DC, symSize: 0x2C }
  - { offsetInCU: 0xD8F5, offset: 0xD8F5, size: 0x8, addend: 0x0, symName: __ZNSt3__114priority_queueIiNS_6vectorIiNS_9allocatorIiEEEENS_7greaterIiEEED2Ev, symObjAddr: 0xC4C, symBinAddr: 0x100001908, symSize: 0x2C }
  - { offsetInCU: 0xD921, offset: 0xD921, size: 0x8, addend: 0x0, symName: __ZNSt3__16vectorIiNS_9allocatorIiEEEC2B8ue170006Ev, symObjAddr: 0xC78, symBinAddr: 0x100001934, symSize: 0x44 }
  - { offsetInCU: 0xD954, offset: 0xD954, size: 0x8, addend: 0x0, symName: __ZNSt3__117__compressed_pairIPiNS_9allocatorIiEEEC1B8ue170006IDnNS_18__default_init_tagEEEOT_OT0_, symObjAddr: 0xCBC, symBinAddr: 0x100001978, symSize: 0x3C }
  - { offsetInCU: 0xD9AB, offset: 0xD9AB, size: 0x8, addend: 0x0, symName: __ZNSt3__117__compressed_pairIPiNS_9allocatorIiEEEC2B8ue170006IDnNS_18__default_init_tagEEEOT_OT0_, symObjAddr: 0xCF8, symBinAddr: 0x1000019B4, symSize: 0x40 }
  - { offsetInCU: 0xDA02, offset: 0xDA02, size: 0x8, addend: 0x0, symName: __ZNSt3__122__compressed_pair_elemIPiLi0ELb0EEC2B8ue170006IDnvEEOT_, symObjAddr: 0xD38, symBinAddr: 0x1000019F4, symSize: 0x1C }
  - { offsetInCU: 0xDA43, offset: 0xDA43, size: 0x8, addend: 0x0, symName: __ZNSt3__122__compressed_pair_elemINS_9allocatorIiEELi1ELb1EEC2B8ue170006ENS_18__default_init_tagE, symObjAddr: 0xD54, symBinAddr: 0x100001A10, symSize: 0x2C }
  - { offsetInCU: 0xDA76, offset: 0xDA76, size: 0x8, addend: 0x0, symName: __ZNSt3__19allocatorIiEC2B8ue170006Ev, symObjAddr: 0xD80, symBinAddr: 0x100001A3C, symSize: 0x2C }
  - { offsetInCU: 0xDA9F, offset: 0xDA9F, size: 0x8, addend: 0x0, symName: __ZNSt3__116__non_trivial_ifILb1ENS_9allocatorIiEEEC2B8ue170006Ev, symObjAddr: 0xDAC, symBinAddr: 0x100001A68, symSize: 0x14 }
  - { offsetInCU: 0xDAC8, offset: 0xDAC8, size: 0x8, addend: 0x0, symName: __ZNSt3__16vectorIiNS_9allocatorIiEEED2B8ue170006Ev, symObjAddr: 0xDC0, symBinAddr: 0x100001A7C, symSize: 0x3C }
  - { offsetInCU: 0xDAF1, offset: 0xDAF1, size: 0x8, addend: 0x0, symName: __ZNSt3__16vectorIiNS_9allocatorIiEEE16__destroy_vectorC1B8ue170006ERS3_, symObjAddr: 0xDFC, symBinAddr: 0x100001AB8, symSize: 0x34 }
  - { offsetInCU: 0xDB29, offset: 0xDB29, size: 0x8, addend: 0x0, symName: __ZNSt3__16vectorIiNS_9allocatorIiEEE16__destroy_vectorclB8ue170006Ev, symObjAddr: 0xE30, symBinAddr: 0x100001AEC, symSize: 0x90 }
  - { offsetInCU: 0xDB4E, offset: 0xDB4E, size: 0x8, addend: 0x0, symName: __ZNSt3__16vectorIiNS_9allocatorIiEEE16__destroy_vectorC2B8ue170006ERS3_, symObjAddr: 0xEC0, symBinAddr: 0x100001B7C, symSize: 0x20 }
  - { offsetInCU: 0xDB86, offset: 0xDB86, size: 0x8, addend: 0x0, symName: __ZNSt3__16vectorIiNS_9allocatorIiEEE7__clearB8ue170006Ev, symObjAddr: 0xEE0, symBinAddr: 0x100001B9C, symSize: 0x28 }
  - { offsetInCU: 0xDBAB, offset: 0xDBAB, size: 0x8, addend: 0x0, symName: __ZNKSt3__16vectorIiNS_9allocatorIiEEE17__annotate_deleteB8ue170006Ev, symObjAddr: 0xF08, symBinAddr: 0x100001BC4, symSize: 0xB8 }
  - { offsetInCU: 0xDBD0, offset: 0xDBD0, size: 0x8, addend: 0x0, symName: __ZNSt3__116allocator_traitsINS_9allocatorIiEEE10deallocateB8ue170006ERS2_Pim, symObjAddr: 0xFC0, symBinAddr: 0x100001C7C, symSize: 0x34 }
  - { offsetInCU: 0xDC12, offset: 0xDC12, size: 0x8, addend: 0x0, symName: __ZNSt3__16vectorIiNS_9allocatorIiEEE7__allocB8ue170006Ev, symObjAddr: 0xFF4, symBinAddr: 0x100001CB0, symSize: 0x28 }
  - { offsetInCU: 0xDC37, offset: 0xDC37, size: 0x8, addend: 0x0, symName: __ZNKSt3__16vectorIiNS_9allocatorIiEEE8capacityB8ue170006Ev, symObjAddr: 0x101C, symBinAddr: 0x100001CD8, symSize: 0x40 }
  - { offsetInCU: 0xDC5C, offset: 0xDC5C, size: 0x8, addend: 0x0, symName: __ZNSt3__16vectorIiNS_9allocatorIiEEE22__base_destruct_at_endB8ue170006EPi, symObjAddr: 0x105C, symBinAddr: 0x100001D18, symSize: 0xA0 }
  - { offsetInCU: 0xDC9F, offset: 0xDC9F, size: 0x8, addend: 0x0, symName: __ZNSt3__116allocator_traitsINS_9allocatorIiEEE7destroyB8ue170006IivEEvRS2_PT_, symObjAddr: 0x10FC, symBinAddr: 0x100001DB8, symSize: 0x2C }
  - { offsetInCU: 0xDCDC, offset: 0xDCDC, size: 0x8, addend: 0x0, symName: __ZNSt3__19allocatorIiE7destroyB8ue170006EPi, symObjAddr: 0x113C, symBinAddr: 0x100001DF8, symSize: 0x14 }
  - { offsetInCU: 0xDD0F, offset: 0xDD0F, size: 0x8, addend: 0x0, symName: __ZNKSt3__16vectorIiNS_9allocatorIiEEE31__annotate_contiguous_containerB8ue170006EPKvS5_S5_S5_, symObjAddr: 0x1150, symBinAddr: 0x100001E0C, symSize: 0x20 }
  - { offsetInCU: 0xDD60, offset: 0xDD60, size: 0x8, addend: 0x0, symName: __ZNKSt3__16vectorIiNS_9allocatorIiEEE4dataB8ue170006Ev, symObjAddr: 0x1170, symBinAddr: 0x100001E2C, symSize: 0x28 }
  - { offsetInCU: 0xDD85, offset: 0xDD85, size: 0x8, addend: 0x0, symName: __ZNSt3__19allocatorIiE10deallocateB8ue170006EPim, symObjAddr: 0x1198, symBinAddr: 0x100001E54, symSize: 0x70 }
  - { offsetInCU: 0xDDC6, offset: 0xDDC6, size: 0x8, addend: 0x0, symName: __ZNSt3__117__compressed_pairIPiNS_9allocatorIiEEE6secondB8ue170006Ev, symObjAddr: 0x1290, symBinAddr: 0x100001F4C, symSize: 0x24 }
  - { offsetInCU: 0xDDEB, offset: 0xDDEB, size: 0x8, addend: 0x0, symName: __ZNSt3__122__compressed_pair_elemINS_9allocatorIiEELi1ELb1EE5__getB8ue170006Ev, symObjAddr: 0x12B4, symBinAddr: 0x100001F70, symSize: 0x14 }
  - { offsetInCU: 0xDE10, offset: 0xDE10, size: 0x8, addend: 0x0, symName: __ZNKSt3__16vectorIiNS_9allocatorIiEEE9__end_capB8ue170006Ev, symObjAddr: 0x12C8, symBinAddr: 0x100001F84, symSize: 0x28 }
  - { offsetInCU: 0xDE35, offset: 0xDE35, size: 0x8, addend: 0x0, symName: __ZNKSt3__117__compressed_pairIPiNS_9allocatorIiEEE5firstB8ue170006Ev, symObjAddr: 0x12F0, symBinAddr: 0x100001FAC, symSize: 0x24 }
  - { offsetInCU: 0xDE5A, offset: 0xDE5A, size: 0x8, addend: 0x0, symName: __ZNKSt3__122__compressed_pair_elemIPiLi0ELb0EE5__getB8ue170006Ev, symObjAddr: 0x1314, symBinAddr: 0x100001FD0, symSize: 0x14 }
  - { offsetInCU: 0xDE7F, offset: 0xDE7F, size: 0x8, addend: 0x0, symName: __ZNSt3__16vectorIiNS_9allocatorIiEEE9__end_capB8ue170006Ev, symObjAddr: 0x1328, symBinAddr: 0x100001FE4, symSize: 0x28 }
  - { offsetInCU: 0xDEA9, offset: 0xDEA9, size: 0x8, addend: 0x0, symName: __ZNSt3__16vectorIiNS_9allocatorIiEEE22__construct_one_at_endB8ue170006IJiEEEvDpOT_, symObjAddr: 0x1350, symBinAddr: 0x10000200C, symSize: 0x98 }
  - { offsetInCU: 0xDEF7, offset: 0xDEF7, size: 0x8, addend: 0x0, symName: __ZNSt3__16vectorIiNS_9allocatorIiEEE21__push_back_slow_pathIiEEvOT_, symObjAddr: 0x13E8, symBinAddr: 0x1000020A4, symSize: 0xE0 }
  - { offsetInCU: 0xDF53, offset: 0xDF53, size: 0x8, addend: 0x0, symName: __ZNSt3__117__compressed_pairIPiNS_9allocatorIiEEE5firstB8ue170006Ev, symObjAddr: 0x14C8, symBinAddr: 0x100002184, symSize: 0x24 }
  - { offsetInCU: 0xDF78, offset: 0xDF78, size: 0x8, addend: 0x0, symName: __ZNSt3__122__compressed_pair_elemIPiLi0ELb0EE5__getB8ue170006Ev, symObjAddr: 0x14EC, symBinAddr: 0x1000021A8, symSize: 0x14 }
  - { offsetInCU: 0xDFB6, offset: 0xDFB6, size: 0x8, addend: 0x0, symName: __ZNSt3__16vectorIiNS_9allocatorIiEEE21_ConstructTransactionC1B8ue170006ERS3_m, symObjAddr: 0x1500, symBinAddr: 0x1000021BC, symSize: 0x3C }
  - { offsetInCU: 0xDFFD, offset: 0xDFFD, size: 0x8, addend: 0x0, symName: __ZNSt3__116allocator_traitsINS_9allocatorIiEEE9constructB8ue170006IiJiEvEEvRS2_PT_DpOT0_, symObjAddr: 0x153C, symBinAddr: 0x1000021F8, symSize: 0x34 }
  - { offsetInCU: 0xE054, offset: 0xE054, size: 0x8, addend: 0x0, symName: __ZNSt3__16vectorIiNS_9allocatorIiEEE21_ConstructTransactionD1B8ue170006Ev, symObjAddr: 0x1570, symBinAddr: 0x10000222C, symSize: 0x2C }
  - { offsetInCU: 0xE07D, offset: 0xE07D, size: 0x8, addend: 0x0, symName: __ZNSt3__16vectorIiNS_9allocatorIiEEE21_ConstructTransactionC2B8ue170006ERS3_m, symObjAddr: 0x159C, symBinAddr: 0x100002258, symSize: 0x44 }
  - { offsetInCU: 0xE0C4, offset: 0xE0C4, size: 0x8, addend: 0x0, symName: __ZNSt3__19allocatorIiE9constructB8ue170006IiJiEEEvPT_DpOT0_, symObjAddr: 0x15E0, symBinAddr: 0x10000229C, symSize: 0x28 }
  - { offsetInCU: 0xE119, offset: 0xE119, size: 0x8, addend: 0x0, symName: __ZNSt3__16vectorIiNS_9allocatorIiEEE21_ConstructTransactionD2B8ue170006Ev, symObjAddr: 0x1608, symBinAddr: 0x1000022C4, symSize: 0x20 }
  - { offsetInCU: 0xE142, offset: 0xE142, size: 0x8, addend: 0x0, symName: __ZNKSt3__16vectorIiNS_9allocatorIiEEE11__recommendB8ue170006Em, symObjAddr: 0x1628, symBinAddr: 0x1000022E4, symSize: 0xB4 }
  - { offsetInCU: 0xE195, offset: 0xE195, size: 0x8, addend: 0x0, symName: __ZNSt3__114__split_bufferIiRNS_9allocatorIiEEEC1EmmS3_, symObjAddr: 0x16DC, symBinAddr: 0x100002398, symSize: 0x44 }
  - { offsetInCU: 0xE1EA, offset: 0xE1EA, size: 0x8, addend: 0x0, symName: __ZNSt3__114__split_bufferIiRNS_9allocatorIiEEED1Ev, symObjAddr: 0x1830, symBinAddr: 0x1000024EC, symSize: 0x2C }
  - { offsetInCU: 0xE215, offset: 0xE215, size: 0x8, addend: 0x0, symName: __ZNKSt3__16vectorIiNS_9allocatorIiEEE8max_sizeEv, symObjAddr: 0x185C, symBinAddr: 0x100002518, symSize: 0x74 }
  - { offsetInCU: 0xE23B, offset: 0xE23B, size: 0x8, addend: 0x0, symName: __ZNKSt3__16vectorIiNS_9allocatorIiEEE20__throw_length_errorB8ue170006Ev, symObjAddr: 0x18D0, symBinAddr: 0x10000258C, symSize: 0x1C }
  - { offsetInCU: 0xE26A, offset: 0xE26A, size: 0x8, addend: 0x0, symName: __ZNSt3__116allocator_traitsINS_9allocatorIiEEE8max_sizeB8ue170006IS2_vEEmRKS2_, symObjAddr: 0x1944, symBinAddr: 0x100002600, symSize: 0x24 }
  - { offsetInCU: 0xE298, offset: 0xE298, size: 0x8, addend: 0x0, symName: __ZNKSt3__16vectorIiNS_9allocatorIiEEE7__allocB8ue170006Ev, symObjAddr: 0x1968, symBinAddr: 0x100002624, symSize: 0x28 }
  - { offsetInCU: 0xE2BD, offset: 0xE2BD, size: 0x8, addend: 0x0, symName: __ZNSt3__114numeric_limitsIlE3maxB8ue170006Ev, symObjAddr: 0x1990, symBinAddr: 0x10000264C, symSize: 0x14 }
  - { offsetInCU: 0xE2E5, offset: 0xE2E5, size: 0x8, addend: 0x0, symName: __ZNKSt3__16__lessIvvEclB8ue170006ImmEEbRKT_RKT0_, symObjAddr: 0x19F8, symBinAddr: 0x1000026B4, symSize: 0x34 }
  - { offsetInCU: 0xE338, offset: 0xE338, size: 0x8, addend: 0x0, symName: __ZNKSt3__19allocatorIiE8max_sizeB8ue170006Ev, symObjAddr: 0x1A2C, symBinAddr: 0x1000026E8, symSize: 0x14 }
  - { offsetInCU: 0xE35D, offset: 0xE35D, size: 0x8, addend: 0x0, symName: __ZNKSt3__117__compressed_pairIPiNS_9allocatorIiEEE6secondB8ue170006Ev, symObjAddr: 0x1A40, symBinAddr: 0x1000026FC, symSize: 0x24 }
  - { offsetInCU: 0xE382, offset: 0xE382, size: 0x8, addend: 0x0, symName: __ZNKSt3__122__compressed_pair_elemINS_9allocatorIiEELi1ELb1EE5__getB8ue170006Ev, symObjAddr: 0x1A64, symBinAddr: 0x100002720, symSize: 0x14 }
  - { offsetInCU: 0xE3A7, offset: 0xE3A7, size: 0x8, addend: 0x0, symName: __ZNSt3__123__libcpp_numeric_limitsIlLb1EE3maxB8ue170006Ev, symObjAddr: 0x1A78, symBinAddr: 0x100002734, symSize: 0x8 }
  - { offsetInCU: 0xE3BB, offset: 0xE3BB, size: 0x8, addend: 0x0, symName: __ZNSt12length_errorC1B8ue170006EPKc, symObjAddr: 0x1AE4, symBinAddr: 0x1000027A0, symSize: 0x34 }
  - { offsetInCU: 0xE3F2, offset: 0xE3F2, size: 0x8, addend: 0x0, symName: __ZNSt12length_errorC2B8ue170006EPKc, symObjAddr: 0x1B18, symBinAddr: 0x1000027D4, symSize: 0x4C }
  - { offsetInCU: 0xE429, offset: 0xE429, size: 0x8, addend: 0x0, symName: __ZNSt3__114__split_bufferIiRNS_9allocatorIiEEEC2EmmS3_, symObjAddr: 0x1BB8, symBinAddr: 0x100002874, symSize: 0xD4 }
  - { offsetInCU: 0xE49B, offset: 0xE49B, size: 0x8, addend: 0x0, symName: __ZNSt3__117__compressed_pairIPiRNS_9allocatorIiEEEC1B8ue170006IDnS4_EEOT_OT0_, symObjAddr: 0x1C8C, symBinAddr: 0x100002948, symSize: 0x3C }
  - { offsetInCU: 0xE4F2, offset: 0xE4F2, size: 0x8, addend: 0x0, symName: __ZNSt3__114__split_bufferIiRNS_9allocatorIiEEE7__allocB8ue170006Ev, symObjAddr: 0x1D08, symBinAddr: 0x1000029C4, symSize: 0x28 }
  - { offsetInCU: 0xE517, offset: 0xE517, size: 0x8, addend: 0x0, symName: __ZNSt3__114__split_bufferIiRNS_9allocatorIiEEE9__end_capB8ue170006Ev, symObjAddr: 0x1D30, symBinAddr: 0x1000029EC, symSize: 0x28 }
  - { offsetInCU: 0xE53C, offset: 0xE53C, size: 0x8, addend: 0x0, symName: __ZNSt3__117__compressed_pairIPiRNS_9allocatorIiEEEC2B8ue170006IDnS4_EEOT_OT0_, symObjAddr: 0x1D58, symBinAddr: 0x100002A14, symSize: 0x48 }
  - { offsetInCU: 0xE593, offset: 0xE593, size: 0x8, addend: 0x0, symName: __ZNSt3__122__compressed_pair_elemIRNS_9allocatorIiEELi1ELb0EEC2B8ue170006IS3_vEEOT_, symObjAddr: 0x1DA0, symBinAddr: 0x100002A5C, symSize: 0x20 }
  - { offsetInCU: 0xE5D4, offset: 0xE5D4, size: 0x8, addend: 0x0, symName: __ZNSt3__19allocatorIiE8allocateB8ue170006Em, symObjAddr: 0x1DC0, symBinAddr: 0x100002A7C, symSize: 0x84 }
  - { offsetInCU: 0xE607, offset: 0xE607, size: 0x8, addend: 0x0, symName: __ZNSt3__117__compressed_pairIPiRNS_9allocatorIiEEE6secondB8ue170006Ev, symObjAddr: 0x1EC4, symBinAddr: 0x100002B80, symSize: 0x28 }
  - { offsetInCU: 0xE62C, offset: 0xE62C, size: 0x8, addend: 0x0, symName: __ZNSt3__122__compressed_pair_elemIRNS_9allocatorIiEELi1ELb0EE5__getB8ue170006Ev, symObjAddr: 0x1EEC, symBinAddr: 0x100002BA8, symSize: 0x18 }
  - { offsetInCU: 0xE651, offset: 0xE651, size: 0x8, addend: 0x0, symName: __ZNSt3__117__compressed_pairIPiRNS_9allocatorIiEEE5firstB8ue170006Ev, symObjAddr: 0x1F04, symBinAddr: 0x100002BC0, symSize: 0x24 }
  - { offsetInCU: 0xE676, offset: 0xE676, size: 0x8, addend: 0x0, symName: __ZNSt3__116reverse_iteratorIPiEC1B8ue170006ES1_, symObjAddr: 0x2010, symBinAddr: 0x100002CCC, symSize: 0x34 }
  - { offsetInCU: 0xE6AD, offset: 0xE6AD, size: 0x8, addend: 0x0, symName: __ZNKSt3__116reverse_iteratorIPiE4baseB8ue170006Ev, symObjAddr: 0x2044, symBinAddr: 0x100002D00, symSize: 0x18 }
  - { offsetInCU: 0xE6D2, offset: 0xE6D2, size: 0x8, addend: 0x0, symName: __ZNKSt3__16vectorIiNS_9allocatorIiEEE14__annotate_newB8ue170006Em, symObjAddr: 0x2098, symBinAddr: 0x100002D54, symSize: 0xAC }
  - { offsetInCU: 0xE706, offset: 0xE706, size: 0x8, addend: 0x0, symName: __ZNKSt3__116reverse_iteratorIPiEdeB8ue170006Ev, symObjAddr: 0x21DC, symBinAddr: 0x100002E98, symSize: 0x28 }
  - { offsetInCU: 0xE739, offset: 0xE739, size: 0x8, addend: 0x0, symName: __ZNSt3__116reverse_iteratorIPiEppB8ue170006Ev, symObjAddr: 0x2204, symBinAddr: 0x100002EC0, symSize: 0x20 }
  - { offsetInCU: 0xE763, offset: 0xE763, size: 0x8, addend: 0x0, symName: __ZNSt3__119__to_address_helperINS_16reverse_iteratorIPiEEvE6__callB8ue170006ERKS3_, symObjAddr: 0x229C, symBinAddr: 0x100002F58, symSize: 0x4C }
  - { offsetInCU: 0xE786, offset: 0xE786, size: 0x8, addend: 0x0, symName: __ZNKSt3__116reverse_iteratorIPiEptB8ue170006Ev, symObjAddr: 0x22E8, symBinAddr: 0x100002FA4, symSize: 0x24 }
  - { offsetInCU: 0xE7CE, offset: 0xE7CE, size: 0x8, addend: 0x0, symName: __ZNKSt3__111__move_loopINS_17_ClassicAlgPolicyEEclB8ue170006INS_16reverse_iteratorIPiEES6_S6_EENS_4pairIT_T1_EES8_T0_S9_, symObjAddr: 0x2584, symBinAddr: 0x100003240, symSize: 0xA0 }
  - { offsetInCU: 0xE838, offset: 0xE838, size: 0x8, addend: 0x0, symName: __ZNSt3__18_IterOpsINS_17_ClassicAlgPolicyEE11__iter_moveB8ue170006IRNS_16reverse_iteratorIPiEEEENS_9enable_ifIXsr12is_referenceIDTdeclsr3stdE7declvalIRT_EEEEE5valueEDTclsr3stdE4movedeclsr3stdE7declvalISA_EEEEE4typeEOS9_, symObjAddr: 0x2784, symBinAddr: 0x100003440, symSize: 0x28 }
  - { offsetInCU: 0xE864, offset: 0xE864, size: 0x8, addend: 0x0, symName: __ZNSt3__18_IterOpsINS_17_ClassicAlgPolicyEE25__validate_iter_referenceB8ue170006IRNS_16reverse_iteratorIPiEEEEvv, symObjAddr: 0x27AC, symBinAddr: 0x100003468, symSize: 0x4 }
  - { offsetInCU: 0xE882, offset: 0xE882, size: 0x8, addend: 0x0, symName: __ZNSt3__118__unwrap_iter_implINS_16reverse_iteratorIPiEELb0EE8__unwrapB8ue170006ES3_, symObjAddr: 0x27B0, symBinAddr: 0x10000346C, symSize: 0x24 }
  - { offsetInCU: 0xE8A5, offset: 0xE8A5, size: 0x8, addend: 0x0, symName: __ZNSt3__14pairINS_16reverse_iteratorIPiEES3_EC1B8ue170006ERKS3_S6_, symObjAddr: 0x27D4, symBinAddr: 0x100003490, symSize: 0x3C }
  - { offsetInCU: 0xE8EA, offset: 0xE8EA, size: 0x8, addend: 0x0, symName: __ZNSt3__14pairINS_16reverse_iteratorIPiEES3_EC2B8ue170006ERKS3_S6_, symObjAddr: 0x2810, symBinAddr: 0x1000034CC, symSize: 0x34 }
  - { offsetInCU: 0xE92F, offset: 0xE92F, size: 0x8, addend: 0x0, symName: __ZNSt3__118__unwrap_iter_implINS_16reverse_iteratorIPiEELb0EE8__rewrapB8ue170006ES3_S3_, symObjAddr: 0x2844, symBinAddr: 0x100003500, symSize: 0x2C }
  - { offsetInCU: 0xE95C, offset: 0xE95C, size: 0x8, addend: 0x0, symName: __ZNSt3__116reverse_iteratorIPiEC2B8ue170006ES1_, symObjAddr: 0x2870, symBinAddr: 0x10000352C, symSize: 0x28 }
  - { offsetInCU: 0xE993, offset: 0xE993, size: 0x8, addend: 0x0, symName: __ZNSt3__114__split_bufferIiRNS_9allocatorIiEEED2Ev, symObjAddr: 0x2898, symBinAddr: 0x100003554, symSize: 0x80 }
  - { offsetInCU: 0xE9BE, offset: 0xE9BE, size: 0x8, addend: 0x0, symName: __ZNSt3__114__split_bufferIiRNS_9allocatorIiEEE5clearB8ue170006Ev, symObjAddr: 0x2918, symBinAddr: 0x1000035D4, symSize: 0x28 }
  - { offsetInCU: 0xE9E3, offset: 0xE9E3, size: 0x8, addend: 0x0, symName: __ZNKSt3__114__split_bufferIiRNS_9allocatorIiEEE8capacityB8ue170006Ev, symObjAddr: 0x2940, symBinAddr: 0x1000035FC, symSize: 0x40 }
  - { offsetInCU: 0xEA08, offset: 0xEA08, size: 0x8, addend: 0x0, symName: __ZNSt3__114__split_bufferIiRNS_9allocatorIiEEE17__destruct_at_endB8ue170006EPi, symObjAddr: 0x2980, symBinAddr: 0x10000363C, symSize: 0x2C }
  - { offsetInCU: 0xEA3B, offset: 0xEA3B, size: 0x8, addend: 0x0, symName: __ZNSt3__114__split_bufferIiRNS_9allocatorIiEEE17__destruct_at_endB8ue170006EPiNS_17integral_constantIbLb0EEE, symObjAddr: 0x29AC, symBinAddr: 0x100003668, symSize: 0x94 }
  - { offsetInCU: 0xEA79, offset: 0xEA79, size: 0x8, addend: 0x0, symName: __ZNKSt3__114__split_bufferIiRNS_9allocatorIiEEE9__end_capB8ue170006Ev, symObjAddr: 0x2A40, symBinAddr: 0x1000036FC, symSize: 0x28 }
  - { offsetInCU: 0xEA9E, offset: 0xEA9E, size: 0x8, addend: 0x0, symName: __ZNKSt3__117__compressed_pairIPiRNS_9allocatorIiEEE5firstB8ue170006Ev, symObjAddr: 0x2A68, symBinAddr: 0x100003724, symSize: 0x24 }
  - { offsetInCU: 0xEAC3, offset: 0xEAC3, size: 0x8, addend: 0x0, symName: __ZNSt3__111char_traitsIcE6lengthB8ue170006EPKc, symObjAddr: 0x2C80, symBinAddr: 0x10000393C, symSize: 0x48 }
  - { offsetInCU: 0xEB04, offset: 0xEB04, size: 0x8, addend: 0x0, symName: __ZNKSt3__113basic_ostreamIcNS_11char_traitsIcEEE6sentrycvbB8ue170006Ev, symObjAddr: 0x2CC8, symBinAddr: 0x100003984, symSize: 0x1C }
  - { offsetInCU: 0xEB29, offset: 0xEB29, size: 0x8, addend: 0x0, symName: __ZNSt3__119ostreambuf_iteratorIcNS_11char_traitsIcEEEC1B8ue170006ERNS_13basic_ostreamIcS2_EE, symObjAddr: 0x2F2C, symBinAddr: 0x100003BE8, symSize: 0x34 }
  - { offsetInCU: 0xEB60, offset: 0xEB60, size: 0x8, addend: 0x0, symName: __ZNKSt3__18ios_base5flagsB8ue170006Ev, symObjAddr: 0x2F60, symBinAddr: 0x100003C1C, symSize: 0x18 }
  - { offsetInCU: 0xEB87, offset: 0xEB87, size: 0x8, addend: 0x0, symName: __ZNKSt3__19basic_iosIcNS_11char_traitsIcEEE4fillB8ue170006Ev, symObjAddr: 0x2F78, symBinAddr: 0x100003C34, symSize: 0x64 }
  - { offsetInCU: 0xEBAD, offset: 0xEBAD, size: 0x8, addend: 0x0, symName: __ZNKSt3__119ostreambuf_iteratorIcNS_11char_traitsIcEEE6failedB8ue170006Ev, symObjAddr: 0x2FDC, symBinAddr: 0x100003C98, symSize: 0x24 }
  - { offsetInCU: 0xEBD2, offset: 0xEBD2, size: 0x8, addend: 0x0, symName: __ZNSt3__19basic_iosIcNS_11char_traitsIcEEE8setstateB8ue170006Ej, symObjAddr: 0x3000, symBinAddr: 0x100003CBC, symSize: 0x2C }
  - { offsetInCU: 0xEC06, offset: 0xEC06, size: 0x8, addend: 0x0, symName: __ZNKSt3__18ios_base5widthB8ue170006Ev, symObjAddr: 0x302C, symBinAddr: 0x100003CE8, symSize: 0x18 }
  - { offsetInCU: 0xEC2D, offset: 0xEC2D, size: 0x8, addend: 0x0, symName: __ZNSt3__115basic_streambufIcNS_11char_traitsIcEEE5sputnB8ue170006EPKcl, symObjAddr: 0x3044, symBinAddr: 0x100003D00, symSize: 0x3C }
  - { offsetInCU: 0xEC6E, offset: 0xEC6E, size: 0x8, addend: 0x0, symName: __ZNSt3__112basic_stringIcNS_11char_traitsIcEENS_9allocatorIcEEEC1B8ue170006Emc, symObjAddr: 0x3080, symBinAddr: 0x100003D3C, symSize: 0x3C }
  - { offsetInCU: 0xECB5, offset: 0xECB5, size: 0x8, addend: 0x0, symName: __ZNKSt3__112basic_stringIcNS_11char_traitsIcEENS_9allocatorIcEEE4dataB8ue170006Ev, symObjAddr: 0x30BC, symBinAddr: 0x100003D78, symSize: 0x28 }
  - { offsetInCU: 0xECDA, offset: 0xECDA, size: 0x8, addend: 0x0, symName: __ZNSt3__18ios_base5widthB8ue170006El, symObjAddr: 0x30E4, symBinAddr: 0x100003DA0, symSize: 0x2C }
  - { offsetInCU: 0xED1F, offset: 0xED1F, size: 0x8, addend: 0x0, symName: __ZNSt3__112basic_stringIcNS_11char_traitsIcEENS_9allocatorIcEEEC2B8ue170006Emc, symObjAddr: 0x3110, symBinAddr: 0x100003DCC, symSize: 0x4C }
  - { offsetInCU: 0xED66, offset: 0xED66, size: 0x8, addend: 0x0, symName: __ZNSt3__117__compressed_pairINS_12basic_stringIcNS_11char_traitsIcEENS_9allocatorIcEEE5__repES5_EC1B8ue170006INS_18__default_init_tagESA_EEOT_OT0_, symObjAddr: 0x315C, symBinAddr: 0x100003E18, symSize: 0x3C }
  - { offsetInCU: 0xEDBD, offset: 0xEDBD, size: 0x8, addend: 0x0, symName: __ZNSt3__117__compressed_pairINS_12basic_stringIcNS_11char_traitsIcEENS_9allocatorIcEEE5__repES5_EC2B8ue170006INS_18__default_init_tagESA_EEOT_OT0_, symObjAddr: 0x3198, symBinAddr: 0x100003E54, symSize: 0x3C }
  - { offsetInCU: 0xEE14, offset: 0xEE14, size: 0x8, addend: 0x0, symName: __ZNSt3__122__compressed_pair_elemINS_12basic_stringIcNS_11char_traitsIcEENS_9allocatorIcEEE5__repELi0ELb0EEC2B8ue170006ENS_18__default_init_tagE, symObjAddr: 0x31D4, symBinAddr: 0x100003E90, symSize: 0x14 }
  - { offsetInCU: 0xEE47, offset: 0xEE47, size: 0x8, addend: 0x0, symName: __ZNSt3__122__compressed_pair_elemINS_9allocatorIcEELi1ELb1EEC2B8ue170006ENS_18__default_init_tagE, symObjAddr: 0x31E8, symBinAddr: 0x100003EA4, symSize: 0x2C }
  - { offsetInCU: 0xEE7A, offset: 0xEE7A, size: 0x8, addend: 0x0, symName: __ZNSt3__19allocatorIcEC2B8ue170006Ev, symObjAddr: 0x3214, symBinAddr: 0x100003ED0, symSize: 0x2C }
  - { offsetInCU: 0xEEA3, offset: 0xEEA3, size: 0x8, addend: 0x0, symName: __ZNSt3__116__non_trivial_ifILb1ENS_9allocatorIcEEEC2B8ue170006Ev, symObjAddr: 0x3240, symBinAddr: 0x100003EFC, symSize: 0x14 }
  - { offsetInCU: 0xEECC, offset: 0xEECC, size: 0x8, addend: 0x0, symName: __ZNKSt3__112basic_stringIcNS_11char_traitsIcEENS_9allocatorIcEEE13__get_pointerB8ue170006Ev, symObjAddr: 0x3268, symBinAddr: 0x100003F24, symSize: 0x54 }
  - { offsetInCU: 0xEEF1, offset: 0xEEF1, size: 0x8, addend: 0x0, symName: __ZNKSt3__112basic_stringIcNS_11char_traitsIcEENS_9allocatorIcEEE9__is_longB8ue170006Ev, symObjAddr: 0x32BC, symBinAddr: 0x100003F78, symSize: 0x74 }
  - { offsetInCU: 0xEF16, offset: 0xEF16, size: 0x8, addend: 0x0, symName: __ZNKSt3__112basic_stringIcNS_11char_traitsIcEENS_9allocatorIcEEE18__get_long_pointerB8ue170006Ev, symObjAddr: 0x3330, symBinAddr: 0x100003FEC, symSize: 0x28 }
  - { offsetInCU: 0xEF3B, offset: 0xEF3B, size: 0x8, addend: 0x0, symName: __ZNKSt3__112basic_stringIcNS_11char_traitsIcEENS_9allocatorIcEEE19__get_short_pointerB8ue170006Ev, symObjAddr: 0x3358, symBinAddr: 0x100004014, symSize: 0x28 }
  - { offsetInCU: 0xEF60, offset: 0xEF60, size: 0x8, addend: 0x0, symName: __ZNKSt3__117__compressed_pairINS_12basic_stringIcNS_11char_traitsIcEENS_9allocatorIcEEE5__repES5_E5firstB8ue170006Ev, symObjAddr: 0x3380, symBinAddr: 0x10000403C, symSize: 0x24 }
  - { offsetInCU: 0xEF85, offset: 0xEF85, size: 0x8, addend: 0x0, symName: __ZNKSt3__122__compressed_pair_elemINS_12basic_stringIcNS_11char_traitsIcEENS_9allocatorIcEEE5__repELi0ELb0EE5__getB8ue170006Ev, symObjAddr: 0x33A4, symBinAddr: 0x100004060, symSize: 0x14 }
  - { offsetInCU: 0xEFAA, offset: 0xEFAA, size: 0x8, addend: 0x0, symName: __ZNSt3__114pointer_traitsIPKcE10pointer_toB8ue170006ERS1_, symObjAddr: 0x33B8, symBinAddr: 0x100004074, symSize: 0x14 }
  - { offsetInCU: 0xEFCD, offset: 0xEFCD, size: 0x8, addend: 0x0, symName: __ZNSt3__119ostreambuf_iteratorIcNS_11char_traitsIcEEEC2B8ue170006ERNS_13basic_ostreamIcS2_EE, symObjAddr: 0x33CC, symBinAddr: 0x100004088, symSize: 0x68 }
  - { offsetInCU: 0xF004, offset: 0xF004, size: 0x8, addend: 0x0, symName: __ZNKSt3__19basic_iosIcNS_11char_traitsIcEEE5rdbufB8ue170006Ev, symObjAddr: 0x3434, symBinAddr: 0x1000040F0, symSize: 0x24 }
  - { offsetInCU: 0xF02A, offset: 0xF02A, size: 0x8, addend: 0x0, symName: __ZNKSt3__18ios_base5rdbufB8ue170006Ev, symObjAddr: 0x3458, symBinAddr: 0x100004114, symSize: 0x18 }
  - { offsetInCU: 0xF04F, offset: 0xF04F, size: 0x8, addend: 0x0, symName: __ZNSt3__111char_traitsIcE11eq_int_typeB8ue170006Eii, symObjAddr: 0x3470, symBinAddr: 0x10000412C, symSize: 0x28 }
  - { offsetInCU: 0xF082, offset: 0xF082, size: 0x8, addend: 0x0, symName: __ZNSt3__111char_traitsIcE3eofB8ue170006Ev, symObjAddr: 0x3498, symBinAddr: 0x100004154, symSize: 0x8 }
  - { offsetInCU: 0xF096, offset: 0xF096, size: 0x8, addend: 0x0, symName: __ZNKSt3__19basic_iosIcNS_11char_traitsIcEEE5widenB8ue170006Ec, symObjAddr: 0x34A0, symBinAddr: 0x10000415C, symSize: 0x8C }
  - { offsetInCU: 0xF102, offset: 0xF102, size: 0x8, addend: 0x0, symName: __ZNKSt3__15ctypeIcE5widenB8ue170006Ec, symObjAddr: 0x3558, symBinAddr: 0x100004214, symSize: 0x38 }
  - { offsetInCU: 0xF136, offset: 0xF136, size: 0x8, addend: 0x0, symName: __ZNSt3__18ios_base8setstateB8ue170006Ej, symObjAddr: 0x3590, symBinAddr: 0x10000424C, symSize: 0x34 }
  - { offsetInCU: 0xF16B, offset: 0xF16B, size: 0x8, addend: 0x0, symName: __ZNSt3__16vectorIiNS_9allocatorIiEEE11__make_iterB8ue170006EPi, symObjAddr: 0x35E8, symBinAddr: 0x1000042A4, symSize: 0x30 }
  - { offsetInCU: 0xF19F, offset: 0xF19F, size: 0x8, addend: 0x0, symName: __ZNSt3__111__wrap_iterIPiEC1B8ue170006ES1_, symObjAddr: 0x3618, symBinAddr: 0x1000042D4, symSize: 0x34 }
  - { offsetInCU: 0xF1D6, offset: 0xF1D6, size: 0x8, addend: 0x0, symName: __ZNSt3__111__wrap_iterIPiEC2B8ue170006ES1_, symObjAddr: 0x364C, symBinAddr: 0x100004308, symSize: 0x20 }
  - { offsetInCU: 0xF20D, offset: 0xF20D, size: 0x8, addend: 0x0, symName: __ZNSt3__114priority_queueIiNS_6vectorIiNS_9allocatorIiEEEENS_7greaterIiEEEC2INS_11__wrap_iterIPiEEvEET_SC_RKS6_, symObjAddr: 0x366C, symBinAddr: 0x100004328, symSize: 0xA8 }
  - { offsetInCU: 0xF26F, offset: 0xF26F, size: 0x8, addend: 0x0, symName: __ZNSt3__16vectorIiNS_9allocatorIiEEEC1INS_11__wrap_iterIPiEELi0EEET_S8_, symObjAddr: 0x3714, symBinAddr: 0x1000043D0, symSize: 0x3C }
  - { offsetInCU: 0xF2C7, offset: 0xF2C7, size: 0x8, addend: 0x0, symName: __ZNSt3__16vectorIiNS_9allocatorIiEEEC2INS_11__wrap_iterIPiEELi0EEET_S8_, symObjAddr: 0x3790, symBinAddr: 0x10000444C, symSize: 0x94 }
  - { offsetInCU: 0xF33C, offset: 0xF33C, size: 0x8, addend: 0x0, symName: __ZNSt3__16vectorIiNS_9allocatorIiEEE16__init_with_sizeB8ue170006INS_11__wrap_iterIPiEES7_EEvT_T0_m, symObjAddr: 0x3860, symBinAddr: 0x10000451C, symSize: 0xD0 }
  - { offsetInCU: 0xF3AF, offset: 0xF3AF, size: 0x8, addend: 0x0, symName: __ZNKSt3__111__wrap_iterIPiE4baseB8ue170006Ev, symObjAddr: 0x39A8, symBinAddr: 0x100004664, symSize: 0x18 }
  - { offsetInCU: 0xF3D4, offset: 0xF3D4, size: 0x8, addend: 0x0, symName: __ZNSt3__16vectorIiNS_9allocatorIiEEE11__vallocateB8ue170006Em, symObjAddr: 0x3A00, symBinAddr: 0x1000046BC, symSize: 0xAC }
  - { offsetInCU: 0xF417, offset: 0xF417, size: 0x8, addend: 0x0, symName: __ZNSt3__16vectorIiNS_9allocatorIiEEE18__construct_at_endINS_11__wrap_iterIPiEES7_EEvT_T0_m, symObjAddr: 0x3AAC, symBinAddr: 0x100004768, symSize: 0xA4 }
  - { offsetInCU: 0xF48B, offset: 0xF48B, size: 0x8, addend: 0x0, symName: __ZNSt3__128__exception_guard_exceptionsINS_6vectorIiNS_9allocatorIiEEE16__destroy_vectorEE10__completeB8ue170006Ev, symObjAddr: 0x3B50, symBinAddr: 0x10000480C, symSize: 0x1C }
  - { offsetInCU: 0xF4B0, offset: 0xF4B0, size: 0x8, addend: 0x0, symName: __ZNSt3__128__exception_guard_exceptionsINS_6vectorIiNS_9allocatorIiEEE16__destroy_vectorEED1B8ue170006Ev, symObjAddr: 0x3B6C, symBinAddr: 0x100004828, symSize: 0x2C }
  - { offsetInCU: 0xF4D9, offset: 0xF4D9, size: 0x8, addend: 0x0, symName: __ZNSt3__128__exception_guard_exceptionsINS_6vectorIiNS_9allocatorIiEEE16__destroy_vectorEEC1B8ue170006ES5_, symObjAddr: 0x3B98, symBinAddr: 0x100004854, symSize: 0x34 }
  - { offsetInCU: 0xF510, offset: 0xF510, size: 0x8, addend: 0x0, symName: __ZNSt3__128__exception_guard_exceptionsINS_6vectorIiNS_9allocatorIiEEE16__destroy_vectorEEC2B8ue170006ES5_, symObjAddr: 0x3BCC, symBinAddr: 0x100004888, symSize: 0x24 }
  - { offsetInCU: 0xF560, offset: 0xF560, size: 0x8, addend: 0x0, symName: __ZNSt3__14pairIPiS1_EC1B8ue170006ERKS1_S4_, symObjAddr: 0x3EC4, symBinAddr: 0x100004B80, symSize: 0x3C }
  - { offsetInCU: 0xF5A5, offset: 0xF5A5, size: 0x8, addend: 0x0, symName: __ZNSt3__14pairIPiS1_EC2B8ue170006ERKS1_S4_, symObjAddr: 0x3F00, symBinAddr: 0x100004BBC, symSize: 0x34 }
  - { offsetInCU: 0xF5EA, offset: 0xF5EA, size: 0x8, addend: 0x0, symName: __ZNSt3__118__unwrap_iter_implINS_11__wrap_iterIPiEELb1EE8__unwrapB8ue170006ES3_, symObjAddr: 0x3F34, symBinAddr: 0x100004BF0, symSize: 0x28 }
  - { offsetInCU: 0xF617, offset: 0xF617, size: 0x8, addend: 0x0, symName: __ZNSt3__119__to_address_helperINS_11__wrap_iterIPiEEvE6__callB8ue170006ERKS3_, symObjAddr: 0x3F80, symBinAddr: 0x100004C3C, symSize: 0x30 }
  - { offsetInCU: 0xF63A, offset: 0xF63A, size: 0x8, addend: 0x0, symName: __ZNSt3__114pointer_traitsINS_11__wrap_iterIPiEEE10to_addressB8ue170006ES3_, symObjAddr: 0x3FB0, symBinAddr: 0x100004C6C, symSize: 0x2C }
  - { offsetInCU: 0xF65D, offset: 0xF65D, size: 0x8, addend: 0x0, symName: __ZNSt3__129_AllocatorDestroyRangeReverseINS_9allocatorIiEEPiEC1B8ue170006ERS2_RS3_S6_, symObjAddr: 0x4028, symBinAddr: 0x100004CE4, symSize: 0x44 }
  - { offsetInCU: 0xF6B3, offset: 0xF6B3, size: 0x8, addend: 0x0, symName: __ZNSt3__116allocator_traitsINS_9allocatorIiEEE9constructB8ue170006IiJRiEvEEvRS2_PT_DpOT0_, symObjAddr: 0x406C, symBinAddr: 0x100004D28, symSize: 0x34 }
  - { offsetInCU: 0xF70A, offset: 0xF70A, size: 0x8, addend: 0x0, symName: __ZNSt3__128__exception_guard_exceptionsINS_29_AllocatorDestroyRangeReverseINS_9allocatorIiEEPiEEE10__completeB8ue170006Ev, symObjAddr: 0x40A0, symBinAddr: 0x100004D5C, symSize: 0x1C }
  - { offsetInCU: 0xF72F, offset: 0xF72F, size: 0x8, addend: 0x0, symName: __ZNSt3__128__exception_guard_exceptionsINS_29_AllocatorDestroyRangeReverseINS_9allocatorIiEEPiEEED1B8ue170006Ev, symObjAddr: 0x40BC, symBinAddr: 0x100004D78, symSize: 0x2C }
  - { offsetInCU: 0xF758, offset: 0xF758, size: 0x8, addend: 0x0, symName: __ZNSt3__128__exception_guard_exceptionsINS_29_AllocatorDestroyRangeReverseINS_9allocatorIiEEPiEEEC1B8ue170006ES5_, symObjAddr: 0x40E8, symBinAddr: 0x100004DA4, symSize: 0x34 }
  - { offsetInCU: 0xF790, offset: 0xF790, size: 0x8, addend: 0x0, symName: __ZNSt3__128__exception_guard_exceptionsINS_29_AllocatorDestroyRangeReverseINS_9allocatorIiEEPiEEEC2B8ue170006ES5_, symObjAddr: 0x411C, symBinAddr: 0x100004DD8, symSize: 0x30 }
  - { offsetInCU: 0xF7C8, offset: 0xF7C8, size: 0x8, addend: 0x0, symName: __ZNSt3__129_AllocatorDestroyRangeReverseINS_9allocatorIiEEPiEC2B8ue170006ERS2_RS3_S6_, symObjAddr: 0x414C, symBinAddr: 0x100004E08, symSize: 0x38 }
  - { offsetInCU: 0xF81E, offset: 0xF81E, size: 0x8, addend: 0x0, symName: __ZNSt3__19allocatorIiE9constructB8ue170006IiJRiEEEvPT_DpOT0_, symObjAddr: 0x4184, symBinAddr: 0x100004E40, symSize: 0x28 }
  - { offsetInCU: 0xF873, offset: 0xF873, size: 0x8, addend: 0x0, symName: __ZNSt3__128__exception_guard_exceptionsINS_29_AllocatorDestroyRangeReverseINS_9allocatorIiEEPiEEED2B8ue170006Ev, symObjAddr: 0x41AC, symBinAddr: 0x100004E68, symSize: 0x48 }
  - { offsetInCU: 0xF89C, offset: 0xF89C, size: 0x8, addend: 0x0, symName: __ZNKSt3__129_AllocatorDestroyRangeReverseINS_9allocatorIiEEPiEclB8ue170006Ev, symObjAddr: 0x41F4, symBinAddr: 0x100004EB0, symSize: 0x68 }
  - { offsetInCU: 0xF8C1, offset: 0xF8C1, size: 0x8, addend: 0x0, symName: __ZNSt3__118__unwrap_iter_implIPiLb1EE8__unwrapB8ue170006ES1_, symObjAddr: 0x42CC, symBinAddr: 0x100004F88, symSize: 0x24 }
  - { offsetInCU: 0xF8E4, offset: 0xF8E4, size: 0x8, addend: 0x0, symName: __ZNSt3__118__unwrap_iter_implIPiLb1EE8__rewrapB8ue170006ES1_S1_, symObjAddr: 0x42F0, symBinAddr: 0x100004FAC, symSize: 0x50 }
  - { offsetInCU: 0xF915, offset: 0xF915, size: 0x8, addend: 0x0, symName: __ZNSt3__128__exception_guard_exceptionsINS_6vectorIiNS_9allocatorIiEEE16__destroy_vectorEED2B8ue170006Ev, symObjAddr: 0x4340, symBinAddr: 0x100004FFC, symSize: 0x48 }
  - { offsetInCU: 0xF93E, offset: 0xF93E, size: 0x8, addend: 0x0, symName: __ZNKSt3__111__wrap_iterIPiEplB8ue170006El, symObjAddr: 0x4738, symBinAddr: 0x1000053F4, symSize: 0x3C }
  - { offsetInCU: 0xF97F, offset: 0xF97F, size: 0x8, addend: 0x0, symName: __ZNKSt3__17greaterIiEclB8ue170006ERKiS3_, symObjAddr: 0x4774, symBinAddr: 0x100005430, symSize: 0x34 }
  - { offsetInCU: 0xF9C2, offset: 0xF9C2, size: 0x8, addend: 0x0, symName: __ZNKSt3__111__wrap_iterIPiEdeB8ue170006Ev, symObjAddr: 0x47A8, symBinAddr: 0x100005464, symSize: 0x18 }
  - { offsetInCU: 0xF9E7, offset: 0xF9E7, size: 0x8, addend: 0x0, symName: __ZNSt3__111__wrap_iterIPiEppB8ue170006Ev, symObjAddr: 0x47C0, symBinAddr: 0x10000547C, symSize: 0x20 }
  - { offsetInCU: 0xFA0C, offset: 0xFA0C, size: 0x8, addend: 0x0, symName: __ZNSt3__18_IterOpsINS_17_ClassicAlgPolicyEE11__iter_moveB8ue170006IRNS_11__wrap_iterIPiEEEENS_9enable_ifIXsr12is_referenceIDTdeclsr3stdE7declvalIRT_EEEEE5valueEDTclsr3stdE4movedeclsr3stdE7declvalISA_EEEEE4typeEOS9_, symObjAddr: 0x47E0, symBinAddr: 0x10000549C, symSize: 0x28 }
  - { offsetInCU: 0xFA38, offset: 0xFA38, size: 0x8, addend: 0x0, symName: __ZNSt3__18_IterOpsINS_17_ClassicAlgPolicyEE25__validate_iter_referenceB8ue170006IRNS_11__wrap_iterIPiEEEEvv, symObjAddr: 0x4808, symBinAddr: 0x1000054C4, symSize: 0x4 }
  - { offsetInCU: 0xFA56, offset: 0xFA56, size: 0x8, addend: 0x0, symName: __ZNSt3__111__wrap_iterIPiEpLB8ue170006El, symObjAddr: 0x480C, symBinAddr: 0x1000054C8, symSize: 0x28 }
  - { offsetInCU: 0xFA89, offset: 0xFA89, size: 0x8, addend: 0x0, symName: __ZNKSt3__16vectorIiNS_9allocatorIiEEE5emptyB8ue170006Ev, symObjAddr: 0x4834, symBinAddr: 0x1000054F0, symSize: 0x28 }
  - { offsetInCU: 0xFAAE, offset: 0xFAAE, size: 0x8, addend: 0x0, symName: __ZNKSt3__16vectorIiNS_9allocatorIiEEE5frontB8ue170006Ev, symObjAddr: 0x485C, symBinAddr: 0x100005518, symSize: 0x18 }
  - { offsetInCU: 0xFAD3, offset: 0xFAD3, size: 0x8, addend: 0x0, symName: __ZNSt3__16vectorIiNS_9allocatorIiEEE8pop_backEv, symObjAddr: 0x48CC, symBinAddr: 0x100005588, symSize: 0x2C }
  - { offsetInCU: 0xFAF9, offset: 0xFAF9, size: 0x8, addend: 0x0, symName: __ZNSt3__111__wrap_iterIPiEmmB8ue170006Ev, symObjAddr: 0x4B88, symBinAddr: 0x100005844, symSize: 0x20 }
  - { offsetInCU: 0xFB1E, offset: 0xFB1E, size: 0x8, addend: 0x0, symName: __ZNSt3__16vectorIiNS_9allocatorIiEEE17__destruct_at_endB8ue170006EPi, symObjAddr: 0x4D58, symBinAddr: 0x100005A14, symSize: 0x4C }
  - { offsetInCU: 0xFB61, offset: 0xFB61, size: 0x8, addend: 0x0, symName: __ZNKSt3__16vectorIiNS_9allocatorIiEEE17__annotate_shrinkB8ue170006Em, symObjAddr: 0x4DA4, symBinAddr: 0x100005A60, symSize: 0xB4 }
  - { offsetInCU: 0xFB95, offset: 0xFB95, size: 0x8, addend: 0x0, symName: __ZNSt3__16vectorIcNS_9allocatorIcEEE11__make_iterB8ue170006EPc, symObjAddr: 0x4E58, symBinAddr: 0x100005B14, symSize: 0x30 }
  - { offsetInCU: 0xFBC9, offset: 0xFBC9, size: 0x8, addend: 0x0, symName: __ZNSt3__111__wrap_iterIPcEC1B8ue170006ES1_, symObjAddr: 0x4E88, symBinAddr: 0x100005B44, symSize: 0x34 }
  - { offsetInCU: 0xFC00, offset: 0xFC00, size: 0x8, addend: 0x0, symName: __ZNSt3__111__wrap_iterIPcEC2B8ue170006ES1_, symObjAddr: 0x4EBC, symBinAddr: 0x100005B78, symSize: 0x20 }
  - { offsetInCU: 0xFC37, offset: 0xFC37, size: 0x8, addend: 0x0, symName: __ZNKSt3__111__wrap_iterIPcE4baseB8ue170006Ev, symObjAddr: 0x4F24, symBinAddr: 0x100005BE0, symSize: 0x18 }
  - { offsetInCU: 0xFC5C, offset: 0xFC5C, size: 0x8, addend: 0x0, symName: __ZNSt3__16vectorIcNS_9allocatorIcEEEC2EmRKc, symObjAddr: 0x4F3C, symBinAddr: 0x100005BF8, symSize: 0xE4 }
  - { offsetInCU: 0xFCBA, offset: 0xFCBA, size: 0x8, addend: 0x0, symName: __ZNSt3__117__compressed_pairIPcNS_9allocatorIcEEEC1B8ue170006IDnNS_18__default_init_tagEEEOT_OT0_, symObjAddr: 0x5020, symBinAddr: 0x100005CDC, symSize: 0x3C }
  - { offsetInCU: 0xFD11, offset: 0xFD11, size: 0x8, addend: 0x0, symName: __ZNSt3__16vectorIcNS_9allocatorIcEEE16__destroy_vectorC1B8ue170006ERS3_, symObjAddr: 0x509C, symBinAddr: 0x100005D58, symSize: 0x34 }
  - { offsetInCU: 0xFD49, offset: 0xFD49, size: 0x8, addend: 0x0, symName: __ZNSt3__16vectorIcNS_9allocatorIcEEE11__vallocateB8ue170006Em, symObjAddr: 0x50D0, symBinAddr: 0x100005D8C, symSize: 0xAC }
  - { offsetInCU: 0xFD8C, offset: 0xFD8C, size: 0x8, addend: 0x0, symName: __ZNSt3__16vectorIcNS_9allocatorIcEEE18__construct_at_endEmRKc, symObjAddr: 0x517C, symBinAddr: 0x100005E38, symSize: 0xD8 }
  - { offsetInCU: 0xFE0B, offset: 0xFE0B, size: 0x8, addend: 0x0, symName: __ZNSt3__128__exception_guard_exceptionsINS_6vectorIcNS_9allocatorIcEEE16__destroy_vectorEE10__completeB8ue170006Ev, symObjAddr: 0x5254, symBinAddr: 0x100005F10, symSize: 0x1C }
  - { offsetInCU: 0xFE30, offset: 0xFE30, size: 0x8, addend: 0x0, symName: __ZNSt3__128__exception_guard_exceptionsINS_6vectorIcNS_9allocatorIcEEE16__destroy_vectorEED1B8ue170006Ev, symObjAddr: 0x5270, symBinAddr: 0x100005F2C, symSize: 0x2C }
  - { offsetInCU: 0xFE59, offset: 0xFE59, size: 0x8, addend: 0x0, symName: __ZNSt3__117__compressed_pairIPcNS_9allocatorIcEEEC2B8ue170006IDnNS_18__default_init_tagEEEOT_OT0_, symObjAddr: 0x529C, symBinAddr: 0x100005F58, symSize: 0x40 }
  - { offsetInCU: 0xFEB0, offset: 0xFEB0, size: 0x8, addend: 0x0, symName: __ZNSt3__122__compressed_pair_elemIPcLi0ELb0EEC2B8ue170006IDnvEEOT_, symObjAddr: 0x52DC, symBinAddr: 0x100005F98, symSize: 0x1C }
  - { offsetInCU: 0xFEF1, offset: 0xFEF1, size: 0x8, addend: 0x0, symName: __ZNSt3__128__exception_guard_exceptionsINS_6vectorIcNS_9allocatorIcEEE16__destroy_vectorEEC1B8ue170006ES5_, symObjAddr: 0x52F8, symBinAddr: 0x100005FB4, symSize: 0x34 }
  - { offsetInCU: 0xFF28, offset: 0xFF28, size: 0x8, addend: 0x0, symName: __ZNSt3__128__exception_guard_exceptionsINS_6vectorIcNS_9allocatorIcEEE16__destroy_vectorEEC2B8ue170006ES5_, symObjAddr: 0x532C, symBinAddr: 0x100005FE8, symSize: 0x24 }
  - { offsetInCU: 0xFF5F, offset: 0xFF5F, size: 0x8, addend: 0x0, symName: __ZNSt3__16vectorIcNS_9allocatorIcEEE16__destroy_vectorC2B8ue170006ERS3_, symObjAddr: 0x5350, symBinAddr: 0x10000600C, symSize: 0x20 }
  - { offsetInCU: 0xFF97, offset: 0xFF97, size: 0x8, addend: 0x0, symName: __ZNKSt3__16vectorIcNS_9allocatorIcEEE8max_sizeEv, symObjAddr: 0x5370, symBinAddr: 0x10000602C, symSize: 0x74 }
  - { offsetInCU: 0xFFBD, offset: 0xFFBD, size: 0x8, addend: 0x0, symName: __ZNKSt3__16vectorIcNS_9allocatorIcEEE20__throw_length_errorB8ue170006Ev, symObjAddr: 0x53E4, symBinAddr: 0x1000060A0, symSize: 0x1C }
  - { offsetInCU: 0xFFE2, offset: 0xFFE2, size: 0x8, addend: 0x0, symName: __ZNSt3__16vectorIcNS_9allocatorIcEEE7__allocB8ue170006Ev, symObjAddr: 0x5440, symBinAddr: 0x1000060FC, symSize: 0x28 }
  - { offsetInCU: 0x10007, offset: 0x10007, size: 0x8, addend: 0x0, symName: __ZNSt3__16vectorIcNS_9allocatorIcEEE9__end_capB8ue170006Ev, symObjAddr: 0x5468, symBinAddr: 0x100006124, symSize: 0x28 }
  - { offsetInCU: 0x1002C, offset: 0x1002C, size: 0x8, addend: 0x0, symName: __ZNKSt3__16vectorIcNS_9allocatorIcEEE14__annotate_newB8ue170006Em, symObjAddr: 0x5490, symBinAddr: 0x10000614C, symSize: 0xAC }
  - { offsetInCU: 0x1006A, offset: 0x1006A, size: 0x8, addend: 0x0, symName: __ZNSt3__116allocator_traitsINS_9allocatorIcEEE8max_sizeB8ue170006IS2_vEEmRKS2_, symObjAddr: 0x553C, symBinAddr: 0x1000061F8, symSize: 0x24 }
  - { offsetInCU: 0x10098, offset: 0x10098, size: 0x8, addend: 0x0, symName: __ZNKSt3__16vectorIcNS_9allocatorIcEEE7__allocB8ue170006Ev, symObjAddr: 0x5560, symBinAddr: 0x10000621C, symSize: 0x28 }
  - { offsetInCU: 0x100BD, offset: 0x100BD, size: 0x8, addend: 0x0, symName: __ZNKSt3__19allocatorIcE8max_sizeB8ue170006Ev, symObjAddr: 0x5588, symBinAddr: 0x100006244, symSize: 0x14 }
  - { offsetInCU: 0x100E2, offset: 0x100E2, size: 0x8, addend: 0x0, symName: __ZNKSt3__117__compressed_pairIPcNS_9allocatorIcEEE6secondB8ue170006Ev, symObjAddr: 0x559C, symBinAddr: 0x100006258, symSize: 0x24 }
  - { offsetInCU: 0x10107, offset: 0x10107, size: 0x8, addend: 0x0, symName: __ZNKSt3__122__compressed_pair_elemINS_9allocatorIcEELi1ELb1EE5__getB8ue170006Ev, symObjAddr: 0x55C0, symBinAddr: 0x10000627C, symSize: 0x14 }
  - { offsetInCU: 0x1012C, offset: 0x1012C, size: 0x8, addend: 0x0, symName: __ZNSt3__19allocatorIcE8allocateB8ue170006Em, symObjAddr: 0x55D4, symBinAddr: 0x100006290, symSize: 0x84 }
  - { offsetInCU: 0x1015F, offset: 0x1015F, size: 0x8, addend: 0x0, symName: __ZNSt3__117__compressed_pairIPcNS_9allocatorIcEEE6secondB8ue170006Ev, symObjAddr: 0x5658, symBinAddr: 0x100006314, symSize: 0x24 }
  - { offsetInCU: 0x10184, offset: 0x10184, size: 0x8, addend: 0x0, symName: __ZNSt3__122__compressed_pair_elemINS_9allocatorIcEELi1ELb1EE5__getB8ue170006Ev, symObjAddr: 0x567C, symBinAddr: 0x100006338, symSize: 0x14 }
  - { offsetInCU: 0x101A9, offset: 0x101A9, size: 0x8, addend: 0x0, symName: __ZNSt3__117__compressed_pairIPcNS_9allocatorIcEEE5firstB8ue170006Ev, symObjAddr: 0x5690, symBinAddr: 0x10000634C, symSize: 0x24 }
  - { offsetInCU: 0x101CE, offset: 0x101CE, size: 0x8, addend: 0x0, symName: __ZNSt3__122__compressed_pair_elemIPcLi0ELb0EE5__getB8ue170006Ev, symObjAddr: 0x56B4, symBinAddr: 0x100006370, symSize: 0x14 }
  - { offsetInCU: 0x101F3, offset: 0x101F3, size: 0x8, addend: 0x0, symName: __ZNKSt3__16vectorIcNS_9allocatorIcEEE31__annotate_contiguous_containerB8ue170006EPKvS5_S5_S5_, symObjAddr: 0x56C8, symBinAddr: 0x100006384, symSize: 0x20 }
  - { offsetInCU: 0x10244, offset: 0x10244, size: 0x8, addend: 0x0, symName: __ZNKSt3__16vectorIcNS_9allocatorIcEEE4dataB8ue170006Ev, symObjAddr: 0x56E8, symBinAddr: 0x1000063A4, symSize: 0x28 }
  - { offsetInCU: 0x10269, offset: 0x10269, size: 0x8, addend: 0x0, symName: __ZNKSt3__16vectorIcNS_9allocatorIcEEE8capacityB8ue170006Ev, symObjAddr: 0x5710, symBinAddr: 0x1000063CC, symSize: 0x38 }
  - { offsetInCU: 0x1028E, offset: 0x1028E, size: 0x8, addend: 0x0, symName: __ZNKSt3__16vectorIcNS_9allocatorIcEEE9__end_capB8ue170006Ev, symObjAddr: 0x575C, symBinAddr: 0x100006418, symSize: 0x28 }
  - { offsetInCU: 0x102B3, offset: 0x102B3, size: 0x8, addend: 0x0, symName: __ZNKSt3__117__compressed_pairIPcNS_9allocatorIcEEE5firstB8ue170006Ev, symObjAddr: 0x5784, symBinAddr: 0x100006440, symSize: 0x24 }
  - { offsetInCU: 0x102D8, offset: 0x102D8, size: 0x8, addend: 0x0, symName: __ZNKSt3__122__compressed_pair_elemIPcLi0ELb0EE5__getB8ue170006Ev, symObjAddr: 0x57A8, symBinAddr: 0x100006464, symSize: 0x14 }
  - { offsetInCU: 0x10316, offset: 0x10316, size: 0x8, addend: 0x0, symName: __ZNSt3__16vectorIcNS_9allocatorIcEEE21_ConstructTransactionC1B8ue170006ERS3_m, symObjAddr: 0x57BC, symBinAddr: 0x100006478, symSize: 0x3C }
  - { offsetInCU: 0x1035D, offset: 0x1035D, size: 0x8, addend: 0x0, symName: __ZNSt3__116allocator_traitsINS_9allocatorIcEEE9constructB8ue170006IcJRKcEvEEvRS2_PT_DpOT0_, symObjAddr: 0x57F8, symBinAddr: 0x1000064B4, symSize: 0x34 }
  - { offsetInCU: 0x103B4, offset: 0x103B4, size: 0x8, addend: 0x0, symName: __ZNSt3__16vectorIcNS_9allocatorIcEEE21_ConstructTransactionD1B8ue170006Ev, symObjAddr: 0x582C, symBinAddr: 0x1000064E8, symSize: 0x2C }
  - { offsetInCU: 0x103DD, offset: 0x103DD, size: 0x8, addend: 0x0, symName: __ZNSt3__16vectorIcNS_9allocatorIcEEE21_ConstructTransactionC2B8ue170006ERS3_m, symObjAddr: 0x5858, symBinAddr: 0x100006514, symSize: 0x44 }
  - { offsetInCU: 0x10424, offset: 0x10424, size: 0x8, addend: 0x0, symName: __ZNSt3__19allocatorIcE9constructB8ue170006IcJRKcEEEvPT_DpOT0_, symObjAddr: 0x589C, symBinAddr: 0x100006558, symSize: 0x28 }
  - { offsetInCU: 0x10479, offset: 0x10479, size: 0x8, addend: 0x0, symName: __ZNSt3__16vectorIcNS_9allocatorIcEEE21_ConstructTransactionD2B8ue170006Ev, symObjAddr: 0x58C4, symBinAddr: 0x100006580, symSize: 0x20 }
  - { offsetInCU: 0x104A2, offset: 0x104A2, size: 0x8, addend: 0x0, symName: __ZNSt3__128__exception_guard_exceptionsINS_6vectorIcNS_9allocatorIcEEE16__destroy_vectorEED2B8ue170006Ev, symObjAddr: 0x58E4, symBinAddr: 0x1000065A0, symSize: 0x48 }
  - { offsetInCU: 0x104CB, offset: 0x104CB, size: 0x8, addend: 0x0, symName: __ZNSt3__16vectorIcNS_9allocatorIcEEE16__destroy_vectorclB8ue170006Ev, symObjAddr: 0x592C, symBinAddr: 0x1000065E8, symSize: 0x90 }
  - { offsetInCU: 0x104F0, offset: 0x104F0, size: 0x8, addend: 0x0, symName: __ZNSt3__16vectorIcNS_9allocatorIcEEE7__clearB8ue170006Ev, symObjAddr: 0x59BC, symBinAddr: 0x100006678, symSize: 0x28 }
  - { offsetInCU: 0x10515, offset: 0x10515, size: 0x8, addend: 0x0, symName: __ZNKSt3__16vectorIcNS_9allocatorIcEEE17__annotate_deleteB8ue170006Ev, symObjAddr: 0x59E4, symBinAddr: 0x1000066A0, symSize: 0xB8 }
  - { offsetInCU: 0x1053A, offset: 0x1053A, size: 0x8, addend: 0x0, symName: __ZNSt3__116allocator_traitsINS_9allocatorIcEEE10deallocateB8ue170006ERS2_Pcm, symObjAddr: 0x5A9C, symBinAddr: 0x100006758, symSize: 0x34 }
  - { offsetInCU: 0x1057C, offset: 0x1057C, size: 0x8, addend: 0x0, symName: __ZNSt3__16vectorIcNS_9allocatorIcEEE22__base_destruct_at_endB8ue170006EPc, symObjAddr: 0x5AD0, symBinAddr: 0x10000678C, symSize: 0xA0 }
  - { offsetInCU: 0x105BF, offset: 0x105BF, size: 0x8, addend: 0x0, symName: __ZNSt3__116allocator_traitsINS_9allocatorIcEEE7destroyB8ue170006IcvEEvRS2_PT_, symObjAddr: 0x5B70, symBinAddr: 0x10000682C, symSize: 0x2C }
  - { offsetInCU: 0x105FC, offset: 0x105FC, size: 0x8, addend: 0x0, symName: __ZNSt3__19allocatorIcE7destroyB8ue170006EPc, symObjAddr: 0x5B9C, symBinAddr: 0x100006858, symSize: 0x14 }
  - { offsetInCU: 0x1062F, offset: 0x1062F, size: 0x8, addend: 0x0, symName: __ZNKSt3__16vectorIcNS_9allocatorIcEEE4sizeB8ue170006Ev, symObjAddr: 0x5BB0, symBinAddr: 0x10000686C, symSize: 0x20 }
  - { offsetInCU: 0x10654, offset: 0x10654, size: 0x8, addend: 0x0, symName: __ZNSt3__19allocatorIcE10deallocateB8ue170006EPcm, symObjAddr: 0x5BD0, symBinAddr: 0x10000688C, symSize: 0x70 }
  - { offsetInCU: 0x10695, offset: 0x10695, size: 0x8, addend: 0x0, symName: __ZNSt3__16vectorIcNS_9allocatorIcEEED2B8ue170006Ev, symObjAddr: 0x5C40, symBinAddr: 0x1000068FC, symSize: 0x3C }
  - { offsetInCU: 0x1074C, offset: 0x1074C, size: 0x8, addend: 0x0, symName: __ZNKSt3__113basic_istreamIcNS_11char_traitsIcEEE6sentrycvbB8ue170006Ev, symObjAddr: 0x5C7C, symBinAddr: 0x100006938, symSize: 0x1C }
  - { offsetInCU: 0x10771, offset: 0x10771, size: 0x8, addend: 0x0, symName: __ZNSt3__115basic_streambufIcNS_11char_traitsIcEEE6sbumpcB8ue170006Ev, symObjAddr: 0x5C98, symBinAddr: 0x100006954, symSize: 0x78 }
  - { offsetInCU: 0x10796, offset: 0x10796, size: 0x8, addend: 0x0, symName: __ZNSt3__111char_traitsIcE12to_char_typeB8ue170006Ei, symObjAddr: 0x5D10, symBinAddr: 0x1000069CC, symSize: 0x18 }
  - { offsetInCU: 0x107B9, offset: 0x107B9, size: 0x8, addend: 0x0, symName: __ZNSt3__18ios_base18__setstate_nothrowB8ue170006Ej, symObjAddr: 0x5D28, symBinAddr: 0x1000069E4, symSize: 0x64 }
  - { offsetInCU: 0x107ED, offset: 0x107ED, size: 0x8, addend: 0x0, symName: __ZNKSt3__19basic_iosIcNS_11char_traitsIcEEE10exceptionsB8ue170006Ev, symObjAddr: 0x5D8C, symBinAddr: 0x100006A48, symSize: 0x24 }
  - { offsetInCU: 0x10812, offset: 0x10812, size: 0x8, addend: 0x0, symName: __ZNSt3__111char_traitsIcE11to_int_typeB8ue170006Ec, symObjAddr: 0x5DB0, symBinAddr: 0x100006A6C, symSize: 0x14 }
  - { offsetInCU: 0x10836, offset: 0x10836, size: 0x8, addend: 0x0, symName: __ZNKSt3__18ios_base10exceptionsB8ue170006Ev, symObjAddr: 0x5DC4, symBinAddr: 0x100006A80, symSize: 0x18 }
  - { offsetInCU: 0x1085D, offset: 0x1085D, size: 0x8, addend: 0x0, symName: __ZNSt3__16vectorIcNS_9allocatorIcEEEC2ERKS3_, symObjAddr: 0x5DDC, symBinAddr: 0x100006A98, symSize: 0x94 }
  - { offsetInCU: 0x10897, offset: 0x10897, size: 0x8, addend: 0x0, symName: __ZNSt3__116allocator_traitsINS_9allocatorIcEEE37select_on_container_copy_constructionB8ue170006IS2_vvEES2_RKS2_, symObjAddr: 0x5E70, symBinAddr: 0x100006B2C, symSize: 0x10 }
  - { offsetInCU: 0x108CB, offset: 0x108CB, size: 0x8, addend: 0x0, symName: __ZNSt3__117__compressed_pairIPcNS_9allocatorIcEEEC1B8ue170006IDnS3_EEOT_OT0_, symObjAddr: 0x5E80, symBinAddr: 0x100006B3C, symSize: 0x3C }
  - { offsetInCU: 0x10922, offset: 0x10922, size: 0x8, addend: 0x0, symName: __ZNSt3__16vectorIcNS_9allocatorIcEEE16__init_with_sizeB8ue170006IPcS5_EEvT_T0_m, symObjAddr: 0x5EBC, symBinAddr: 0x100006B78, symSize: 0xC0 }
  - { offsetInCU: 0x10995, offset: 0x10995, size: 0x8, addend: 0x0, symName: __ZNSt3__117__compressed_pairIPcNS_9allocatorIcEEEC2B8ue170006IDnS3_EEOT_OT0_, symObjAddr: 0x5F7C, symBinAddr: 0x100006C38, symSize: 0x44 }
  - { offsetInCU: 0x109EC, offset: 0x109EC, size: 0x8, addend: 0x0, symName: __ZNSt3__122__compressed_pair_elemINS_9allocatorIcEELi1ELb1EEC2B8ue170006IS2_vEEOT_, symObjAddr: 0x5FC0, symBinAddr: 0x100006C7C, symSize: 0x18 }
  - { offsetInCU: 0x10A2D, offset: 0x10A2D, size: 0x8, addend: 0x0, symName: __ZNSt3__16vectorIcNS_9allocatorIcEEE18__construct_at_endIPcS5_EEvT_T0_m, symObjAddr: 0x5FD8, symBinAddr: 0x100006C94, symSize: 0x94 }
  - { offsetInCU: 0x10ABA, offset: 0x10ABA, size: 0x8, addend: 0x0, symName: __ZNSt3__14pairIPcS1_EC1B8ue170006ERKS1_S4_, symObjAddr: 0x62F4, symBinAddr: 0x100006FB0, symSize: 0x3C }
  - { offsetInCU: 0x10AFF, offset: 0x10AFF, size: 0x8, addend: 0x0, symName: __ZNSt3__14pairIPcS1_EC2B8ue170006ERKS1_S4_, symObjAddr: 0x6330, symBinAddr: 0x100006FEC, symSize: 0x34 }
  - { offsetInCU: 0x10B44, offset: 0x10B44, size: 0x8, addend: 0x0, symName: __ZNSt3__129_AllocatorDestroyRangeReverseINS_9allocatorIcEEPcEC1B8ue170006ERS2_RS3_S6_, symObjAddr: 0x63B0, symBinAddr: 0x10000706C, symSize: 0x44 }
  - { offsetInCU: 0x10B9A, offset: 0x10B9A, size: 0x8, addend: 0x0, symName: __ZNSt3__116allocator_traitsINS_9allocatorIcEEE9constructB8ue170006IcJRcEvEEvRS2_PT_DpOT0_, symObjAddr: 0x63F4, symBinAddr: 0x1000070B0, symSize: 0x34 }
  - { offsetInCU: 0x10BF1, offset: 0x10BF1, size: 0x8, addend: 0x0, symName: __ZNSt3__128__exception_guard_exceptionsINS_29_AllocatorDestroyRangeReverseINS_9allocatorIcEEPcEEE10__completeB8ue170006Ev, symObjAddr: 0x6428, symBinAddr: 0x1000070E4, symSize: 0x1C }
  - { offsetInCU: 0x10C16, offset: 0x10C16, size: 0x8, addend: 0x0, symName: __ZNSt3__128__exception_guard_exceptionsINS_29_AllocatorDestroyRangeReverseINS_9allocatorIcEEPcEEED1B8ue170006Ev, symObjAddr: 0x6444, symBinAddr: 0x100007100, symSize: 0x2C }
  - { offsetInCU: 0x10C3F, offset: 0x10C3F, size: 0x8, addend: 0x0, symName: __ZNSt3__128__exception_guard_exceptionsINS_29_AllocatorDestroyRangeReverseINS_9allocatorIcEEPcEEEC1B8ue170006ES5_, symObjAddr: 0x6470, symBinAddr: 0x10000712C, symSize: 0x34 }
  - { offsetInCU: 0x10C77, offset: 0x10C77, size: 0x8, addend: 0x0, symName: __ZNSt3__128__exception_guard_exceptionsINS_29_AllocatorDestroyRangeReverseINS_9allocatorIcEEPcEEEC2B8ue170006ES5_, symObjAddr: 0x64A4, symBinAddr: 0x100007160, symSize: 0x30 }
  - { offsetInCU: 0x10CAF, offset: 0x10CAF, size: 0x8, addend: 0x0, symName: __ZNSt3__129_AllocatorDestroyRangeReverseINS_9allocatorIcEEPcEC2B8ue170006ERS2_RS3_S6_, symObjAddr: 0x64D4, symBinAddr: 0x100007190, symSize: 0x38 }
  - { offsetInCU: 0x10D05, offset: 0x10D05, size: 0x8, addend: 0x0, symName: __ZNSt3__19allocatorIcE9constructB8ue170006IcJRcEEEvPT_DpOT0_, symObjAddr: 0x650C, symBinAddr: 0x1000071C8, symSize: 0x28 }
  - { offsetInCU: 0x10D5A, offset: 0x10D5A, size: 0x8, addend: 0x0, symName: __ZNSt3__128__exception_guard_exceptionsINS_29_AllocatorDestroyRangeReverseINS_9allocatorIcEEPcEEED2B8ue170006Ev, symObjAddr: 0x6534, symBinAddr: 0x1000071F0, symSize: 0x48 }
  - { offsetInCU: 0x10D83, offset: 0x10D83, size: 0x8, addend: 0x0, symName: __ZNKSt3__129_AllocatorDestroyRangeReverseINS_9allocatorIcEEPcEclB8ue170006Ev, symObjAddr: 0x657C, symBinAddr: 0x100007238, symSize: 0x68 }
  - { offsetInCU: 0x10DA8, offset: 0x10DA8, size: 0x8, addend: 0x0, symName: __ZNSt3__116reverse_iteratorIPcEC1B8ue170006ES1_, symObjAddr: 0x6654, symBinAddr: 0x100007310, symSize: 0x34 }
  - { offsetInCU: 0x10DDF, offset: 0x10DDF, size: 0x8, addend: 0x0, symName: __ZNSt3__116reverse_iteratorIPcEppB8ue170006Ev, symObjAddr: 0x66F4, symBinAddr: 0x1000073B0, symSize: 0x20 }
  - { offsetInCU: 0x10E04, offset: 0x10E04, size: 0x8, addend: 0x0, symName: __ZNKSt3__116reverse_iteratorIPcE4baseB8ue170006Ev, symObjAddr: 0x6714, symBinAddr: 0x1000073D0, symSize: 0x18 }
  - { offsetInCU: 0x10E2E, offset: 0x10E2E, size: 0x8, addend: 0x0, symName: __ZNSt3__119__to_address_helperINS_16reverse_iteratorIPcEEvE6__callB8ue170006ERKS3_, symObjAddr: 0x672C, symBinAddr: 0x1000073E8, symSize: 0x4C }
  - { offsetInCU: 0x10E51, offset: 0x10E51, size: 0x8, addend: 0x0, symName: __ZNKSt3__116reverse_iteratorIPcEptB8ue170006Ev, symObjAddr: 0x6778, symBinAddr: 0x100007434, symSize: 0x24 }
  - { offsetInCU: 0x10E76, offset: 0x10E76, size: 0x8, addend: 0x0, symName: __ZNKSt3__116reverse_iteratorIPcEdeB8ue170006Ev, symObjAddr: 0x679C, symBinAddr: 0x100007458, symSize: 0x28 }
  - { offsetInCU: 0x10EA9, offset: 0x10EA9, size: 0x8, addend: 0x0, symName: __ZNSt3__116reverse_iteratorIPcEC2B8ue170006ES1_, symObjAddr: 0x67C4, symBinAddr: 0x100007480, symSize: 0x28 }
  - { offsetInCU: 0x10EE0, offset: 0x10EE0, size: 0x8, addend: 0x0, symName: __ZNSt3__118__unwrap_iter_implIPcLb1EE8__unwrapB8ue170006ES1_, symObjAddr: 0x67EC, symBinAddr: 0x1000074A8, symSize: 0x24 }
  - { offsetInCU: 0x10F03, offset: 0x10F03, size: 0x8, addend: 0x0, symName: __ZNSt3__118__unwrap_iter_implIPcLb1EE8__rewrapB8ue170006ES1_S1_, symObjAddr: 0x6810, symBinAddr: 0x1000074CC, symSize: 0x48 }
...
